(dp0
S'FASTREAD'
p1
(lp2
(dp3
S'x'
p4
(lp5
I0
aI10
aI20
aI30
aI40
aI50
aI60
aI70
aI80
aI90
aI100
aI110
aI120
aI130
aI140
aI150
aI160
aI170
aI180
aI190
aI200
aI210
aI220
aI230
aI240
aI250
aI260
aI270
aI280
aI290
aI300
aI310
aI320
aI330
aI340
aI350
aI360
aI370
aI380
aI390
aI400
aI410
aI420
aI430
aI440
aI450
aI460
aI470
aI480
aI490
aI500
aI510
aI520
aI530
aI540
aI550
aI560
aI570
aI580
aI590
aI600
aI610
aI620
aI630
aI640
aI650
aI660
aI670
aI680
aI690
aI700
aI710
aI720
aI730
aI740
aI745
asS'pos'
p6
(lp7
I0
aI2
aI2
aI10
aI19
aI23
aI24
aI32
aI38
aI38
aI44
aI47
aI51
aI56
aI59
aI63
aI68
aI73
aI78
aI82
aI86
aI93
aI100
aI101
aI104
aI108
aI113
aI117
aI120
aI121
aI123
aI123
aI123
aI127
aI133
aI134
aI136
aI138
aI138
aI139
aI139
aI140
aI143
aI144
aI144
aI144
aI147
aI147
aI147
aI148
aI149
aI149
aI149
aI150
aI151
aI153
aI154
aI155
aI155
aI155
aI156
aI156
aI157
aI160
aI160
aI160
aI160
aI160
aI160
aI160
aI162
aI162
aI162
aI164
aI165
aI166
asasS'LINEAR'
p8
(lp9
(dp10
S'x'
p11
(lp12
I0
aI10
aI20
aI30
aI40
aI50
aI60
aI70
aI80
aI90
aI100
aI110
aI120
aI130
aI140
aI150
aI160
aI170
aI180
aI190
aI200
aI210
aI220
aI230
aI240
aI250
aI260
aI270
aI280
aI290
aI300
aI310
aI320
aI330
aI340
aI350
aI360
aI370
aI380
aI390
aI400
aI410
aI420
aI430
aI440
aI450
aI460
aI470
aI480
aI490
aI500
aI510
aI520
aI530
aI540
aI550
aI560
aI570
aI580
aI590
aI600
aI610
aI620
aI630
aI640
aI650
aI660
aI670
aI680
aI690
aI700
aI710
aI720
aI730
aI740
aI745
asS'pos'
p13
(lp14
I0
aI5
aI6
aI9
aI11
aI11
aI14
aI16
aI17
aI20
aI20
aI22
aI23
aI24
aI25
aI25
aI28
aI30
aI32
aI37
aI37
aI39
aI40
aI41
aI42
aI47
aI50
aI54
aI55
aI60
aI61
aI62
aI64
aI70
aI73
aI74
aI79
aI80
aI82
aI85
aI85
aI88
aI91
aI91
aI93
aI96
aI101
aI101
aI104
aI107
aI108
aI110
aI114
aI115
aI119
aI123
aI125
aI126
aI129
aI132
aI135
aI138
aI141
aI141
aI144
aI145
aI148
aI149
aI151
aI152
aI155
aI158
aI160
aI163
aI165
aI166
asas.