(dp0
S'FASTREAD'
p1
(lp2
(dp3
S'x'
p4
(lp5
I0
aI10
aI20
aI30
aI40
aI50
aI60
aI70
aI80
aI90
aI100
aI110
aI120
aI130
aI140
aI150
aI160
aI170
aI180
aI190
aI200
aI210
aI220
aI230
aI240
aI250
aI260
aI270
aI280
aI290
aI300
aI310
asS'pos'
p6
(lp7
I0
aI0
aI3
aI6
aI12
aI21
aI27
aI31
aI37
aI43
aI48
aI50
aI55
aI56
aI59
aI61
aI62
aI63
aI64
aI64
aI64
aI65
aI69
aI72
aI73
aI74
aI76
aI76
aI77
aI78
aI78
aI79
asasS'LINEAR'
p8
(lp9
(dp10
g4
(lp11
I0
aI10
aI20
aI30
aI40
aI50
aI60
aI70
aI80
aI90
aI100
aI110
aI120
aI130
aI140
aI150
aI160
aI170
aI180
aI190
aI200
aI210
aI220
aI230
aI240
aI250
aI260
aI270
aI280
aI290
aI300
aI310
asg6
(lp12
I0
aI6
aI8
aI10
aI12
aI16
aI20
aI20
aI21
aI22
aI25
aI30
aI33
aI36
aI40
aI41
aI42
aI44
aI47
aI51
aI53
aI56
aI58
aI59
aI60
aI62
aI64
aI68
aI73
aI75
aI78
aI79
asas.