(dp0
S'RF'
p1
(lp2
(dp3
S'x'
p4
(lp5
I0
aI10
aI20
aI30
aI40
aI50
aI60
aI70
aI80
aI90
aI100
aI110
aI120
aI130
aI140
aI150
aI160
aI170
aI180
aI190
aI200
aI210
aI220
aI230
aI240
aI250
aI260
aI270
aI280
aI290
aI300
aI310
aI320
aI330
aI340
aI350
aI360
asS'pos'
p6
(lp7
I0
aI1
aI9
aI12
aI15
aI16
aI16
aI16
aI18
aI24
aI29
aI32
aI35
aI37
aI37
aI38
aI39
aI39
aI40
aI40
aI41
aI43
aI44
aI44
aI44
aI44
aI45
aI47
aI47
aI47
aI47
aI47
aI47
aI47
aI47
aI47
aI48
asa(dp8
g4
(lp9
I0
aI10
aI20
aI30
aI40
aI50
aI60
aI70
aI80
aI90
aI100
aI110
aI120
aI130
aI140
aI150
aI160
aI170
aI180
aI190
aI200
aI210
aI220
aI230
aI240
aI250
aI260
aI270
aI280
aI290
aI300
aI310
aI320
aI330
aI340
aI350
asg6
(lp10
I0
aI0
aI2
aI8
aI14
aI19
aI21
aI24
aI26
aI26
aI28
aI30
aI33
aI36
aI39
aI39
aI39
aI42
aI43
aI44
aI44
aI45
aI45
aI45
aI45
aI45
aI46
aI46
aI47
aI47
aI47
aI47
aI47
aI47
aI47
aI48
asa(dp11
g4
(lp12
I0
aI10
aI20
aI30
aI40
aI50
aI60
aI70
aI80
aI90
aI100
aI110
aI120
aI130
aI140
aI150
aI160
aI170
aI180
aI190
aI200
aI210
aI220
aI230
aI240
aI250
aI260
aI270
aI280
aI290
aI300
aI310
aI320
aI330
aI340
aI350
aI360
asg6
(lp13
I0
aI1
aI8
aI13
aI17
aI20
aI22
aI26
aI28
aI28
aI30
aI33
aI35
aI35
aI35
aI37
aI37
aI38
aI39
aI42
aI44
aI44
aI46
aI46
aI46
aI46
aI46
aI46
aI47
aI47
aI47
aI47
aI47
aI47
aI47
aI47
aI48
asa(dp14
g4
(lp15
I0
aI10
aI20
aI30
aI40
aI50
aI60
aI70
aI80
aI90
aI100
aI110
aI120
aI130
aI140
aI150
aI160
aI170
aI180
aI190
aI200
aI210
aI220
aI230
aI240
aI250
aI260
aI270
aI280
aI290
aI300
aI310
aI320
aI330
aI340
asg6
(lp16
I0
aI3
aI11
aI17
aI19
aI22
aI24
aI29
aI30
aI33
aI34
aI36
aI37
aI37
aI39
aI39
aI41
aI41
aI41
aI41
aI41
aI43
aI44
aI44
aI44
aI44
aI44
aI44
aI45
aI46
aI46
aI47
aI47
aI47
aI48
asa(dp17
g4
(lp18
I0
aI10
aI20
aI30
aI40
aI50
aI60
aI70
aI80
aI90
aI100
aI110
aI120
aI130
aI140
aI150
aI160
aI170
aI180
aI190
aI200
aI210
aI220
aI230
aI240
aI250
aI260
aI270
aI280
aI290
aI300
aI310
aI320
aI330
aI340
aI350
aI360
asg6
(lp19
I0
aI0
aI0
aI4
aI8
aI9
aI16
aI21
aI22
aI25
aI32
aI35
aI35
aI36
aI36
aI37
aI39
aI42
aI42
aI42
aI42
aI42
aI42
aI44
aI44
aI45
aI46
aI46
aI46
aI47
aI47
aI47
aI47
aI47
aI47
aI47
aI48
asasS'SVM-linear'
p20
(lp21
(dp22
g4
(lp23
I0
aI10
aI20
aI30
aI40
aI50
aI60
aI70
aI80
aI90
aI100
aI110
aI120
aI130
aI140
aI150
aI160
aI170
aI180
aI190
aI200
aI210
aI220
aI230
aI240
aI250
aI260
aI270
aI280
aI290
aI300
aI310
aI320
aI330
asg6
(lp24
I0
aI1
aI5
aI12
aI15
aI19
aI23
aI26
aI29
aI33
aI35
aI36
aI39
aI39
aI40
aI40
aI40
aI42
aI42
aI43
aI43
aI43
aI44
aI44
aI44
aI44
aI45
aI45
aI45
aI46
aI46
aI46
aI47
aI48
asa(dp25
g4
(lp26
I0
aI10
aI20
aI30
aI40
aI50
aI60
aI70
aI80
aI90
aI100
aI110
aI120
aI130
aI140
aI150
aI160
aI170
aI180
aI190
aI200
aI210
aI220
aI230
aI240
aI250
aI260
aI270
aI280
aI290
aI300
aI310
aI320
aI330
asg6
(lp27
I0
aI1
aI6
aI11
aI11
aI17
aI20
aI26
aI28
aI30
aI30
aI31
aI32
aI33
aI33
aI34
aI35
aI37
aI40
aI40
aI42
aI43
aI44
aI45
aI45
aI45
aI45
aI46
aI46
aI46
aI46
aI46
aI47
aI48
asa(dp28
g4
(lp29
I0
aI10
aI20
aI30
aI40
aI50
aI60
aI70
aI80
aI90
aI100
aI110
aI120
aI130
aI140
aI150
aI160
aI170
aI180
aI190
aI200
aI210
aI220
aI230
aI240
aI250
aI260
aI270
aI280
aI290
aI300
asg6
(lp30
I0
aI2
aI8
aI14
aI15
aI17
aI22
aI23
aI25
aI28
aI28
aI28
aI30
aI34
aI36
aI37
aI38
aI38
aI38
aI39
aI41
aI42
aI43
aI44
aI44
aI44
aI45
aI45
aI45
aI46
aI48
asa(dp31
g4
(lp32
I0
aI10
aI20
aI30
aI40
aI50
aI60
aI70
aI80
aI90
aI100
aI110
aI120
aI130
aI140
aI150
aI160
aI170
aI180
aI190
aI200
aI210
aI220
aI230
aI240
aI250
aI260
aI270
aI280
aI290
aI300
aI310
aI320
aI330
asg6
(lp33
I0
aI2
aI9
aI13
aI16
aI19
aI21
aI25
aI28
aI31
aI33
aI34
aI34
aI36
aI36
aI38
aI38
aI38
aI38
aI39
aI41
aI42
aI43
aI44
aI44
aI44
aI45
aI45
aI46
aI47
aI47
aI47
aI47
aI48
asa(dp34
g4
(lp35
I0
aI10
aI20
aI30
aI40
aI50
aI60
aI70
aI80
aI90
aI100
aI110
aI120
aI130
aI140
aI150
aI160
aI170
aI180
aI190
aI200
aI210
aI220
aI230
aI240
aI250
aI260
aI270
aI280
aI290
aI300
asg6
(lp36
I0
aI3
aI10
aI11
aI13
aI18
aI21
aI24
aI29
aI31
aI34
aI36
aI37
aI40
aI40
aI40
aI40
aI42
aI42
aI43
aI43
aI44
aI44
aI44
aI44
aI45
aI45
aI45
aI46
aI46
aI48
asasS'LINEAR'
p37
(lp38
(dp39
g4
(lp40
I0
aI10
aI20
aI30
aI40
aI50
aI60
aI70
aI80
aI90
aI100
aI110
aI120
aI130
aI140
aI150
aI160
aI170
aI180
aI190
aI200
aI210
aI220
aI230
aI240
aI250
aI260
aI270
aI280
aI290
aI300
aI310
aI320
aI330
aI340
aI350
asg6
(lp41
I0
aI1
aI1
aI2
aI3
aI4
aI6
aI8
aI9
aI11
aI12
aI12
aI14
aI15
aI16
aI16
aI17
aI18
aI20
aI22
aI23
aI24
aI26
aI27
aI27
aI28
aI32
aI32
aI34
aI35
aI37
aI40
aI41
aI41
aI43
aI48
asa(dp42
g4
(lp43
I0
aI10
aI20
aI30
aI40
aI50
aI60
aI70
aI80
aI90
aI100
aI110
aI120
aI130
aI140
aI150
aI160
aI170
aI180
aI190
aI200
aI210
aI220
aI230
aI240
aI250
aI260
aI270
aI280
aI290
aI300
aI310
aI320
aI330
aI340
aI350
aI360
asg6
(lp44
I0
aI1
aI1
aI2
aI3
aI4
aI7
aI7
aI8
aI8
aI8
aI10
aI11
aI11
aI11
aI11
aI14
aI15
aI17
aI21
aI22
aI25
aI27
aI30
aI32
aI32
aI33
aI35
aI36
aI38
aI40
aI41
aI43
aI45
aI46
aI47
aI48
asa(dp45
g4
(lp46
I0
aI10
aI20
aI30
aI40
aI50
aI60
aI70
aI80
aI90
aI100
aI110
aI120
aI130
aI140
aI150
aI160
aI170
aI180
aI190
aI200
aI210
aI220
aI230
aI240
aI250
aI260
aI270
aI280
aI290
aI300
aI310
aI320
aI330
aI340
aI350
aI360
aI367
asg6
(lp47
I0
aI2
aI3
aI5
aI7
aI8
aI10
aI11
aI12
aI14
aI17
aI18
aI20
aI20
aI23
aI24
aI25
aI26
aI26
aI27
aI28
aI28
aI28
aI29
aI31
aI32
aI32
aI33
aI33
aI35
aI38
aI40
aI42
aI42
aI43
aI46
aI47
aI48
asa(dp48
g4
(lp49
I0
aI10
aI20
aI30
aI40
aI50
aI60
aI70
aI80
aI90
aI100
aI110
aI120
aI130
aI140
aI150
aI160
aI170
aI180
aI190
aI200
aI210
aI220
aI230
aI240
aI250
aI260
aI270
aI280
aI290
aI300
aI310
aI320
aI330
aI340
aI350
asg6
(lp50
I0
aI0
aI1
aI3
aI6
aI8
aI10
aI10
aI14
aI16
aI16
aI17
aI18
aI21
aI22
aI25
aI26
aI26
aI28
aI30
aI31
aI31
aI32
aI33
aI33
aI34
aI35
aI36
aI36
aI37
aI39
aI43
aI43
aI45
aI46
aI48
asa(dp51
g4
(lp52
I0
aI10
aI20
aI30
aI40
aI50
aI60
aI70
aI80
aI90
aI100
aI110
aI120
aI130
aI140
aI150
aI160
aI170
aI180
aI190
aI200
aI210
aI220
aI230
aI240
aI250
aI260
aI270
aI280
aI290
aI300
aI310
aI320
aI330
aI340
aI350
aI360
aI367
asg6
(lp53
I0
aI2
aI2
aI4
aI5
aI6
aI7
aI9
aI9
aI12
aI14
aI16
aI16
aI18
aI18
aI19
aI20
aI23
aI23
aI24
aI25
aI26
aI27
aI27
aI27
aI29
aI31
aI33
aI34
aI36
aI38
aI41
aI43
aI45
aI46
aI47
aI47
aI48
asasS'SVM-rbf'
p54
(lp55
(dp56
g4
(lp57
I0
aI10
aI20
aI30
aI40
aI50
aI60
aI70
aI80
aI90
aI100
aI110
aI120
aI130
aI140
aI150
aI160
aI170
aI180
aI190
aI200
aI210
aI220
aI230
aI240
aI250
aI260
aI270
aI280
aI290
aI300
aI310
aI320
aI330
aI340
aI350
aI360
asg6
(lp58
I0
aI1
aI1
aI1
aI2
aI2
aI4
aI6
aI7
aI8
aI11
aI13
aI14
aI16
aI16
aI19
aI23
aI27
aI29
aI30
aI31
aI31
aI31
aI32
aI34
aI34
aI35
aI36
aI39
aI39
aI40
aI40
aI42
aI47
aI47
aI47
aI48
asa(dp59
g4
(lp60
I0
aI10
aI20
aI30
aI40
aI50
aI60
aI70
aI80
aI90
aI100
aI110
aI120
aI130
aI140
aI150
aI160
aI170
aI180
aI190
aI200
aI210
aI220
aI230
aI240
aI250
aI260
aI270
aI280
aI290
aI300
aI310
aI320
aI330
aI340
aI350
aI360
aI367
asg6
(lp61
I0
aI1
aI1
aI1
aI1
aI1
aI1
aI1
aI1
aI1
aI1
aI3
aI3
aI3
aI3
aI4
aI4
aI5
aI6
aI7
aI7
aI10
aI12
aI16
aI21
aI21
aI22
aI24
aI25
aI28
aI30
aI33
aI35
aI38
aI41
aI44
aI47
aI48
asa(dp62
g4
(lp63
I0
aI10
aI20
aI30
aI40
aI50
aI60
aI70
aI80
aI90
aI100
aI110
aI120
aI130
aI140
aI150
aI160
aI170
aI180
aI190
aI200
aI210
aI220
aI230
aI240
aI250
aI260
aI270
aI280
aI290
aI300
aI310
aI320
aI330
aI340
aI350
asg6
(lp64
I0
aI1
aI1
aI1
aI1
aI2
aI2
aI3
aI3
aI3
aI6
aI7
aI11
aI11
aI15
aI17
aI20
aI23
aI26
aI30
aI31
aI33
aI34
aI35
aI35
aI36
aI37
aI38
aI40
aI41
aI41
aI44
aI44
aI45
aI47
aI48
asa(dp65
g4
(lp66
I0
aI10
aI20
aI30
aI40
aI50
aI60
aI70
aI80
aI90
aI100
aI110
aI120
aI130
aI140
aI150
aI160
aI170
aI180
aI190
aI200
aI210
aI220
aI230
aI240
aI250
aI260
aI270
aI280
aI290
aI300
aI310
aI320
aI330
aI340
aI350
aI360
asg6
(lp67
I0
aI3
aI3
aI7
aI7
aI7
aI9
aI10
aI12
aI14
aI18
aI21
aI26
aI27
aI27
aI29
aI29
aI31
aI32
aI35
aI39
aI39
aI40
aI41
aI42
aI42
aI43
aI43
aI43
aI44
aI46
aI46
aI46
aI47
aI47
aI47
aI48
asa(dp68
g4
(lp69
I0
aI10
aI20
aI30
aI40
aI50
aI60
aI70
aI80
aI90
aI100
aI110
aI120
aI130
aI140
aI150
aI160
aI170
aI180
aI190
aI200
aI210
aI220
aI230
aI240
aI250
aI260
aI270
aI280
aI290
aI300
aI310
aI320
aI330
aI340
aI350
aI360
asg6
(lp70
I0
aI3
aI4
aI4
aI4
aI6
aI7
aI7
aI8
aI11
aI12
aI13
aI15
aI18
aI22
aI22
aI23
aI26
aI26
aI30
aI32
aI33
aI33
aI34
aI34
aI34
aI37
aI38
aI40
aI41
aI42
aI44
aI45
aI46
aI46
aI47
aI48
asasS'SVM-poly'
p71
(lp72
(dp73
g4
(lp74
I0
aI10
aI20
aI30
aI40
aI50
aI60
aI70
aI80
aI90
aI100
aI110
aI120
aI130
aI140
aI150
aI160
aI170
aI180
aI190
aI200
aI210
aI220
aI230
aI240
aI250
aI260
aI270
aI280
aI290
aI300
aI310
aI320
aI330
aI340
aI350
asg6
(lp75
I0
aI2
aI10
aI12
aI16
aI19
aI23
aI25
aI26
aI28
aI31
aI32
aI34
aI36
aI37
aI38
aI38
aI38
aI38
aI41
aI41
aI42
aI42
aI42
aI42
aI42
aI43
aI43
aI43
aI44
aI44
aI45
aI45
aI45
aI46
aI48
asa(dp76
g4
(lp77
I0
aI10
aI20
aI30
aI40
aI50
aI60
aI70
aI80
aI90
aI100
aI110
aI120
aI130
aI140
aI150
aI160
aI170
aI180
aI190
aI200
aI210
aI220
aI230
aI240
aI250
aI260
aI270
aI280
aI290
aI300
aI310
aI320
aI330
aI340
asg6
(lp78
I0
aI1
aI8
aI12
aI16
aI17
aI18
aI20
aI23
aI25
aI28
aI28
aI32
aI33
aI34
aI35
aI35
aI35
aI35
aI40
aI43
aI43
aI43
aI44
aI44
aI44
aI44
aI44
aI45
aI45
aI47
aI47
aI47
aI47
aI48
asa(dp79
g4
(lp80
I0
aI10
aI20
aI30
aI40
aI50
aI60
aI70
aI80
aI90
aI100
aI110
aI120
aI130
aI140
aI150
aI160
aI170
aI180
aI190
aI200
aI210
aI220
aI230
aI240
aI250
aI260
aI270
aI280
aI290
aI300
aI310
aI320
aI330
aI340
aI350
asg6
(lp81
I0
aI0
aI2
aI2
aI6
aI11
aI13
aI17
aI24
aI28
aI30
aI30
aI31
aI33
aI34
aI34
aI37
aI38
aI38
aI38
aI38
aI39
aI40
aI40
aI41
aI42
aI43
aI45
aI45
aI46
aI46
aI46
aI47
aI47
aI47
aI48
asa(dp82
g4
(lp83
I0
aI10
aI20
aI30
aI40
aI50
aI60
aI70
aI80
aI90
aI100
aI110
aI120
aI130
aI140
aI150
aI160
aI170
aI180
aI190
aI200
aI210
aI220
aI230
aI240
aI250
aI260
aI270
aI280
aI290
aI300
aI310
aI320
aI330
aI340
aI350
asg6
(lp84
I0
aI1
aI2
aI5
aI11
aI11
aI11
aI11
aI11
aI12
aI20
aI25
aI29
aI31
aI31
aI33
aI35
aI37
aI38
aI38
aI38
aI38
aI40
aI43
aI44
aI45
aI45
aI45
aI46
aI46
aI46
aI47
aI47
aI47
aI47
aI48
asa(dp85
g4
(lp86
I0
aI10
aI20
aI30
aI40
aI50
aI60
aI70
aI80
aI90
aI100
aI110
aI120
aI130
aI140
aI150
aI160
aI170
aI180
aI190
aI200
aI210
aI220
aI230
aI240
aI250
aI260
aI270
aI280
aI290
aI300
aI310
aI320
aI330
aI340
aI350
asg6
(lp87
I0
aI1
aI3
aI7
aI13
aI14
aI14
aI14
aI15
aI16
aI16
aI20
aI24
aI25
aI29
aI33
aI33
aI37
aI37
aI40
aI41
aI42
aI42
aI42
aI42
aI42
aI45
aI45
aI45
aI46
aI46
aI47
aI47
aI47
aI47
aI48
asasS'LR'
p88
(lp89
(dp90
g4
(lp91
I0
aI10
aI20
aI30
aI40
aI50
aI60
aI70
aI80
aI90
aI100
aI110
aI120
aI130
aI140
aI150
aI160
aI170
aI180
aI190
aI200
aI210
aI220
aI230
aI240
aI250
aI260
aI270
aI280
aI290
asg6
(lp92
I0
aI1
aI5
aI11
aI16
aI22
aI25
aI28
aI30
aI31
aI32
aI32
aI32
aI32
aI34
aI34
aI36
aI37
aI38
aI40
aI43
aI44
aI45
aI45
aI45
aI46
aI46
aI46
aI47
aI48
asa(dp93
g4
(lp94
I0
aI10
aI20
aI30
aI40
aI50
aI60
aI70
aI80
aI90
aI100
aI110
aI120
aI130
aI140
aI150
aI160
aI170
aI180
aI190
aI200
aI210
aI220
aI230
aI240
aI250
aI260
aI270
aI280
aI290
asg6
(lp95
I0
aI0
aI2
aI9
aI15
aI19
aI22
aI22
aI22
aI24
aI25
aI26
aI27
aI28
aI30
aI30
aI33
aI34
aI37
aI40
aI41
aI41
aI42
aI43
aI43
aI43
aI44
aI45
aI45
aI48
asa(dp96
g4
(lp97
I0
aI10
aI20
aI30
aI40
aI50
aI60
aI70
aI80
aI90
aI100
aI110
aI120
aI130
aI140
aI150
aI160
aI170
aI180
aI190
aI200
aI210
aI220
aI230
aI240
aI250
aI260
aI270
aI280
aI290
asg6
(lp98
I0
aI2
aI7
aI10
aI15
aI20
aI24
aI27
aI29
aI30
aI32
aI34
aI37
aI39
aI39
aI39
aI41
aI41
aI41
aI42
aI43
aI43
aI45
aI45
aI45
aI45
aI45
aI45
aI46
aI48
asa(dp99
g4
(lp100
I0
aI10
aI20
aI30
aI40
aI50
aI60
aI70
aI80
aI90
aI100
aI110
aI120
aI130
aI140
aI150
aI160
aI170
aI180
aI190
aI200
aI210
aI220
aI230
aI240
aI250
aI260
aI270
aI280
aI290
aI300
asg6
(lp101
I0
aI2
aI6
aI11
aI16
aI21
aI21
aI22
aI22
aI22
aI23
aI24
aI25
aI27
aI29
aI30
aI31
aI34
aI36
aI39
aI41
aI43
aI44
aI45
aI45
aI45
aI45
aI45
aI45
aI46
aI48
asa(dp102
g4
(lp103
I0
aI10
aI20
aI30
aI40
aI50
aI60
aI70
aI80
aI90
aI100
aI110
aI120
aI130
aI140
aI150
aI160
aI170
aI180
aI190
aI200
aI210
aI220
aI230
aI240
aI250
aI260
aI270
aI280
aI290
aI300
aI310
asg6
(lp104
I0
aI1
aI7
aI12
aI14
aI15
aI15
aI15
aI18
aI21
aI23
aI24
aI24
aI25
aI26
aI30
aI32
aI33
aI34
aI37
aI39
aI40
aI40
aI42
aI42
aI43
aI43
aI46
aI46
aI46
aI46
aI48
asasS'SVM-sigmoid'
p105
(lp106
(dp107
g4
(lp108
I0
aI10
aI20
aI30
aI40
aI50
aI60
aI70
aI80
aI90
aI100
aI110
aI120
aI130
aI140
aI150
aI160
aI170
aI180
aI190
aI200
aI210
aI220
aI230
aI240
aI250
aI260
aI270
aI280
aI290
aI300
aI310
asg6
(lp109
I0
aI2
aI2
aI2
aI3
aI5
aI6
aI9
aI10
aI11
aI14
aI19
aI23
aI26
aI27
aI29
aI30
aI33
aI35
aI38
aI41
aI43
aI45
aI47
aI47
aI47
aI47
aI47
aI47
aI47
aI47
aI48
asa(dp110
g4
(lp111
I0
aI10
aI20
aI30
aI40
aI50
aI60
aI70
aI80
aI90
aI100
aI110
aI120
aI130
aI140
aI150
aI160
aI170
aI180
aI190
aI200
aI210
aI220
aI230
aI240
aI250
aI260
aI270
aI280
aI290
aI300
aI310
aI320
asg6
(lp112
I0
aI1
aI2
aI2
aI2
aI2
aI3
aI6
aI10
aI12
aI15
aI19
aI19
aI20
aI22
aI26
aI28
aI30
aI30
aI33
aI35
aI39
aI42
aI43
aI47
aI47
aI47
aI47
aI47
aI47
aI47
aI47
aI48
asa(dp113
g4
(lp114
I0
aI10
aI20
aI30
aI40
aI50
aI60
aI70
aI80
aI90
aI100
aI110
aI120
aI130
aI140
aI150
aI160
aI170
aI180
aI190
aI200
aI210
aI220
aI230
aI240
aI250
aI260
aI270
aI280
aI290
aI300
aI310
aI320
aI330
aI340
aI350
aI360
asg6
(lp115
I0
aI3
aI3
aI7
aI9
aI12
aI14
aI15
aI16
aI23
aI25
aI28
aI29
aI30
aI34
aI35
aI35
aI38
aI38
aI42
aI44
aI46
aI46
aI46
aI46
aI46
aI46
aI46
aI46
aI46
aI47
aI47
aI47
aI47
aI47
aI47
aI48
asa(dp116
g4
(lp117
I0
aI10
aI20
aI30
aI40
aI50
aI60
aI70
aI80
aI90
aI100
aI110
aI120
aI130
aI140
aI150
aI160
aI170
aI180
aI190
aI200
aI210
aI220
aI230
aI240
aI250
aI260
aI270
aI280
aI290
aI300
aI310
aI320
aI330
aI340
aI350
aI360
asg6
(lp118
I0
aI0
aI2
aI2
aI2
aI6
aI7
aI9
aI12
aI13
aI18
aI19
aI20
aI25
aI28
aI30
aI32
aI34
aI36
aI38
aI40
aI42
aI45
aI46
aI46
aI46
aI46
aI46
aI46
aI46
aI47
aI47
aI47
aI47
aI47
aI47
aI48
asa(dp119
g4
(lp120
I0
aI10
aI20
aI30
aI40
aI50
aI60
aI70
aI80
aI90
aI100
aI110
aI120
aI130
aI140
aI150
aI160
aI170
aI180
aI190
aI200
aI210
aI220
aI230
aI240
aI250
aI260
aI270
aI280
aI290
aI300
aI310
aI320
aI330
aI340
aI350
aI360
asg6
(lp121
I0
aI2
aI3
aI3
aI3
aI5
aI10
aI13
aI18
aI19
aI21
aI23
aI27
aI28
aI29
aI31
aI33
aI34
aI35
aI37
aI39
aI42
aI45
aI46
aI46
aI46
aI46
aI46
aI46
aI46
aI46
aI47
aI47
aI47
aI47
aI47
aI48
asasS'CART'
p122
(lp123
(dp124
g4
(lp125
I0
aI10
aI20
aI30
aI40
aI50
aI60
aI70
aI80
aI90
aI100
aI110
aI120
aI130
aI140
aI150
aI160
aI170
aI180
aI190
aI200
aI210
aI220
aI230
aI240
aI250
aI260
aI270
aI280
aI290
aI300
aI310
aI320
aI330
aI340
asg6
(lp126
I0
aI1
aI2
aI3
aI5
aI10
aI15
aI17
aI18
aI19
aI22
aI24
aI26
aI29
aI29
aI30
aI32
aI33
aI34
aI35
aI35
aI37
aI37
aI37
aI41
aI42
aI43
aI45
aI45
aI45
aI45
aI45
aI46
aI47
aI48
asa(dp127
g4
(lp128
I0
aI10
aI20
aI30
aI40
aI50
aI60
aI70
aI80
aI90
aI100
aI110
aI120
aI130
aI140
aI150
aI160
aI170
aI180
aI190
aI200
aI210
aI220
aI230
aI240
aI250
aI260
aI270
aI280
aI290
aI300
aI310
asg6
(lp129
I0
aI3
aI7
aI10
aI13
aI16
aI19
aI22
aI25
aI28
aI31
aI31
aI33
aI34
aI36
aI38
aI39
aI39
aI41
aI41
aI41
aI42
aI42
aI42
aI42
aI42
aI42
aI42
aI45
aI45
aI47
aI48
asa(dp130
g4
(lp131
I0
aI10
aI20
aI30
aI40
aI50
aI60
aI70
aI80
aI90
aI100
aI110
aI120
aI130
aI140
aI150
aI160
aI170
aI180
aI190
aI200
aI210
aI220
aI230
aI240
aI250
aI260
aI270
aI280
aI290
aI300
aI310
aI320
aI330
aI340
asg6
(lp132
I0
aI1
aI5
aI7
aI9
aI14
aI16
aI19
aI20
aI22
aI26
aI29
aI29
aI32
aI32
aI34
aI34
aI35
aI35
aI36
aI37
aI37
aI37
aI38
aI40
aI41
aI42
aI44
aI45
aI45
aI45
aI45
aI45
aI46
aI48
asa(dp133
g4
(lp134
I0
aI10
aI20
aI30
aI40
aI50
aI60
aI70
aI80
aI90
aI100
aI110
aI120
aI130
aI140
aI150
aI160
aI170
aI180
aI190
aI200
aI210
aI220
aI230
aI240
aI250
aI260
aI270
aI280
aI290
aI300
aI310
aI320
aI330
aI340
asg6
(lp135
I0
aI0
aI0
aI0
aI4
aI8
aI12
aI16
aI22
aI25
aI27
aI28
aI30
aI32
aI33
aI36
aI36
aI36
aI36
aI36
aI37
aI38
aI39
aI40
aI42
aI42
aI42
aI44
aI44
aI44
aI46
aI46
aI47
aI47
aI48
asa(dp136
g4
(lp137
I0
aI10
aI20
aI30
aI40
aI50
aI60
aI70
aI80
aI90
aI100
aI110
aI120
aI130
aI140
aI150
aI160
aI170
aI180
aI190
aI200
aI210
aI220
aI230
aI240
aI250
aI260
aI270
aI280
aI290
aI300
aI310
aI320
aI330
aI340
asg6
(lp138
I0
aI3
aI7
aI8
aI10
aI16
aI17
aI23
aI23
aI25
aI28
aI29
aI33
aI34
aI37
aI38
aI38
aI38
aI39
aI39
aI39
aI39
aI39
aI39
aI39
aI39
aI39
aI41
aI41
aI43
aI46
aI46
aI47
aI47
aI48
asas.