(dp0
S'LOC'
p1
(lp2
(dp3
S'x'
p4
(lp5
I0
aI10
aI20
aI30
aI40
aI50
aI60
aI70
aI80
aI90
aI100
aI110
aI120
aI130
aI140
aI150
aI160
aI170
aI180
aI190
aI200
aI210
aI220
aI230
aI240
aI250
aI260
aI270
aI280
aI290
aI300
aI310
aI320
aI330
aI340
asS'pos'
p6
(lp7
I0
aI5
aI11
aI15
aI19
aI22
aI23
aI28
aI30
aI33
aI34
aI35
aI37
aI38
aI39
aI41
aI41
aI42
aI44
aI44
aI45
aI46
aI46
aI46
aI46
aI46
aI46
aI47
aI47
aI47
aI47
aI47
aI47
aI47
aI48
asa(dp8
S'x'
p9
(lp10
I0
aI10
aI20
aI30
aI40
aI50
aI60
aI70
aI80
aI90
aI100
aI110
aI120
aI130
aI140
aI150
aI160
aI170
aI180
aI190
aI200
aI210
aI220
aI230
aI240
aI250
aI260
aI270
aI280
aI290
aI300
aI310
aI320
aI330
aI340
asS'pos'
p11
(lp12
I0
aI5
aI11
aI15
aI19
aI22
aI23
aI28
aI30
aI33
aI34
aI35
aI37
aI38
aI39
aI41
aI41
aI42
aI44
aI44
aI45
aI46
aI46
aI46
aI46
aI46
aI46
aI47
aI47
aI47
aI47
aI47
aI47
aI47
aI48
asa(dp13
g9
(lp14
I0
aI10
aI20
aI30
aI40
aI50
aI60
aI70
aI80
aI90
aI100
aI110
aI120
aI130
aI140
aI150
aI160
aI170
aI180
aI190
aI200
aI210
aI220
aI230
aI240
aI250
aI260
aI270
aI280
aI290
aI300
aI310
aI320
aI330
aI340
asg11
(lp15
I0
aI5
aI11
aI15
aI19
aI22
aI23
aI28
aI30
aI33
aI34
aI35
aI37
aI38
aI39
aI41
aI41
aI42
aI44
aI44
aI45
aI46
aI46
aI46
aI46
aI46
aI46
aI47
aI47
aI47
aI47
aI47
aI47
aI47
aI48
asa(dp16
g9
(lp17
I0
aI10
aI20
aI30
aI40
aI50
aI60
aI70
aI80
aI90
aI100
aI110
aI120
aI130
aI140
aI150
aI160
aI170
aI180
aI190
aI200
aI210
aI220
aI230
aI240
aI250
aI260
aI270
aI280
aI290
aI300
aI310
aI320
aI330
aI340
asg11
(lp18
I0
aI5
aI11
aI15
aI19
aI22
aI23
aI28
aI30
aI33
aI34
aI35
aI37
aI38
aI39
aI41
aI41
aI42
aI44
aI44
aI45
aI46
aI46
aI46
aI46
aI46
aI46
aI47
aI47
aI47
aI47
aI47
aI47
aI47
aI48
asa(dp19
g9
(lp20
I0
aI10
aI20
aI30
aI40
aI50
aI60
aI70
aI80
aI90
aI100
aI110
aI120
aI130
aI140
aI150
aI160
aI170
aI180
aI190
aI200
aI210
aI220
aI230
aI240
aI250
aI260
aI270
aI280
aI290
aI300
aI310
aI320
aI330
aI340
asg11
(lp21
I0
aI5
aI11
aI15
aI19
aI22
aI23
aI28
aI30
aI33
aI34
aI35
aI37
aI38
aI39
aI41
aI41
aI42
aI44
aI44
aI45
aI46
aI46
aI46
aI46
aI46
aI46
aI47
aI47
aI47
aI47
aI47
aI47
aI47
aI48
asasS'LR'
p22
(lp23
(dp24
g9
(lp25
I0
aI10
aI20
aI30
aI40
aI50
aI60
aI70
aI80
aI90
aI100
aI110
aI120
aI130
aI140
aI150
aI160
aI170
aI180
aI190
aI200
aI210
aI220
aI230
aI240
aI250
aI260
aI270
aI280
aI290
aI300
asg11
(lp26
I0
aI1
aI1
aI2
aI3
aI10
aI16
aI17
aI21
aI24
aI25
aI25
aI26
aI27
aI30
aI31
aI33
aI33
aI35
aI38
aI39
aI40
aI43
aI45
aI45
aI45
aI46
aI46
aI46
aI47
aI48
asa(dp27
g9
(lp28
I0
aI10
aI20
aI30
aI40
aI50
aI60
aI70
aI80
aI90
aI100
aI110
aI120
aI130
aI140
aI150
aI160
aI170
aI180
aI190
aI200
aI210
aI220
aI230
aI240
aI250
aI260
aI270
aI280
aI290
aI300
asg11
(lp29
I0
aI1
aI1
aI3
aI5
aI12
aI15
aI22
aI24
aI26
aI27
aI28
aI28
aI30
aI32
aI33
aI35
aI38
aI41
aI41
aI42
aI44
aI44
aI44
aI45
aI46
aI46
aI46
aI46
aI47
aI48
asa(dp30
g9
(lp31
I0
aI10
aI20
aI30
aI40
aI50
aI60
aI70
aI80
aI90
aI100
aI110
aI120
aI130
aI140
aI150
aI160
aI170
aI180
aI190
aI200
aI210
aI220
aI230
aI240
aI250
aI260
aI270
aI280
aI290
aI300
asg11
(lp32
I0
aI0
aI1
aI3
aI4
aI7
aI14
aI19
aI22
aI22
aI23
aI24
aI27
aI30
aI34
aI36
aI36
aI36
aI37
aI37
aI38
aI38
aI38
aI39
aI42
aI43
aI45
aI45
aI45
aI46
aI48
asa(dp33
g9
(lp34
I0
aI10
aI20
aI30
aI40
aI50
aI60
aI70
aI80
aI90
aI100
aI110
aI120
aI130
aI140
aI150
aI160
aI170
aI180
aI190
aI200
aI210
aI220
aI230
aI240
aI250
aI260
aI270
aI280
aI290
aI300
asg11
(lp35
I0
aI1
aI1
aI2
aI3
aI3
aI3
aI4
aI4
aI5
aI5
aI5
aI5
aI6
aI7
aI7
aI9
aI14
aI21
aI26
aI30
aI36
aI37
aI39
aI41
aI41
aI43
aI44
aI44
aI46
aI48
asa(dp36
g9
(lp37
I0
aI10
aI20
aI30
aI40
aI50
aI60
aI70
aI80
aI90
aI100
aI110
aI120
aI130
aI140
aI150
aI160
aI170
aI180
aI190
aI200
aI210
aI220
aI230
aI240
aI250
aI260
aI270
aI280
aI290
aI300
asg11
(lp38
I0
aI2
aI5
aI5
aI6
aI11
aI15
aI19
aI22
aI24
aI26
aI27
aI27
aI28
aI29
aI31
aI34
aI36
aI37
aI39
aI42
aI42
aI42
aI43
aI43
aI43
aI44
aI45
aI45
aI46
aI48
asasS'LINEAR'
p39
(lp40
(dp41
g9
(lp42
I0
aI10
aI20
aI30
aI40
aI50
aI60
aI70
aI80
aI90
aI100
aI110
aI120
aI130
aI140
aI150
aI160
aI170
aI180
aI190
aI200
aI210
aI220
aI230
aI240
aI250
aI260
aI270
aI280
aI290
aI300
aI310
aI320
aI330
aI340
aI350
aI360
aI367
asg11
(lp43
I0
aI1
aI4
aI6
aI6
aI8
aI11
aI13
aI14
aI15
aI15
aI17
aI19
aI21
aI21
aI23
aI25
aI25
aI26
aI26
aI29
aI29
aI31
aI32
aI33
aI33
aI34
aI35
aI36
aI36
aI38
aI40
aI40
aI41
aI42
aI44
aI46
aI48
asa(dp44
g9
(lp45
I0
aI10
aI20
aI30
aI40
aI50
aI60
aI70
aI80
aI90
aI100
aI110
aI120
aI130
aI140
aI150
aI160
aI170
aI180
aI190
aI200
aI210
aI220
aI230
aI240
aI250
aI260
aI270
aI280
aI290
aI300
aI310
aI320
aI330
aI340
aI350
aI360
aI367
asg11
(lp46
I0
aI1
aI3
aI5
aI7
aI9
aI9
aI10
aI12
aI13
aI15
aI16
aI19
aI19
aI19
aI20
aI22
aI24
aI26
aI27
aI28
aI28
aI30
aI32
aI32
aI34
aI35
aI37
aI38
aI39
aI40
aI42
aI43
aI45
aI45
aI46
aI46
aI48
asa(dp47
g9
(lp48
I0
aI10
aI20
aI30
aI40
aI50
aI60
aI70
aI80
aI90
aI100
aI110
aI120
aI130
aI140
aI150
aI160
aI170
aI180
aI190
aI200
aI210
aI220
aI230
aI240
aI250
aI260
aI270
aI280
aI290
aI300
aI310
aI320
aI330
aI340
aI350
asg11
(lp49
I0
aI1
aI2
aI3
aI7
aI10
aI10
aI11
aI14
aI15
aI18
aI18
aI20
aI23
aI24
aI25
aI27
aI27
aI28
aI29
aI30
aI31
aI33
aI33
aI35
aI39
aI39
aI42
aI42
aI42
aI43
aI44
aI44
aI46
aI47
aI48
asa(dp50
g9
(lp51
I0
aI10
aI20
aI30
aI40
aI50
aI60
aI70
aI80
aI90
aI100
aI110
aI120
aI130
aI140
aI150
aI160
aI170
aI180
aI190
aI200
aI210
aI220
aI230
aI240
aI250
aI260
aI270
aI280
aI290
aI300
aI310
aI320
aI330
aI340
aI350
aI360
aI367
asg11
(lp52
I0
aI1
aI3
aI4
aI5
aI7
aI8
aI11
aI11
aI12
aI16
aI16
aI17
aI19
aI19
aI20
aI20
aI24
aI25
aI25
aI26
aI29
aI30
aI31
aI32
aI34
aI35
aI36
aI36
aI38
aI41
aI42
aI43
aI45
aI46
aI46
aI46
aI48
asa(dp53
g9
(lp54
I0
aI10
aI20
aI30
aI40
aI50
aI60
aI70
aI80
aI90
aI100
aI110
aI120
aI130
aI140
aI150
aI160
aI170
aI180
aI190
aI200
aI210
aI220
aI230
aI240
aI250
aI260
aI270
aI280
aI290
aI300
aI310
aI320
aI330
aI340
aI350
asg11
(lp55
I0
aI2
aI3
aI3
aI3
aI5
aI9
aI11
aI14
aI15
aI17
aI19
aI20
aI20
aI21
aI23
aI24
aI26
aI26
aI27
aI28
aI30
aI32
aI33
aI34
aI35
aI36
aI39
aI41
aI43
aI43
aI43
aI44
aI45
aI47
aI48
asas.