(dp0
S'RF'
p1
(lp2
(dp3
S'x'
p4
(lp5
I0
aI10
aI20
aI30
aI40
aI50
aI60
aI70
aI80
aI90
aI100
aI110
aI120
aI130
aI140
aI150
aI160
aI170
aI180
aI190
aI200
aI210
aI220
aI230
aI240
aI250
aI260
aI270
aI280
aI290
aI300
aI310
aI320
aI330
aI340
aI350
aI360
aI370
aI380
aI390
aI400
aI410
aI420
aI430
aI440
aI450
aI460
aI470
aI480
aI490
aI500
aI510
aI520
aI530
aI540
aI550
aI560
aI570
aI580
aI590
aI600
aI610
aI620
aI630
aI640
aI650
aI660
aI670
aI680
aI690
aI700
aI710
aI720
aI730
asS'pos'
p6
(lp7
I0
aI8
aI14
aI20
aI25
aI33
aI39
aI46
aI53
aI58
aI63
aI70
aI75
aI81
aI87
aI92
aI93
aI97
aI101
aI103
aI108
aI111
aI113
aI115
aI115
aI116
aI119
aI120
aI120
aI124
aI126
aI128
aI131
aI132
aI133
aI134
aI136
aI139
aI140
aI140
aI141
aI144
aI145
aI146
aI147
aI147
aI149
aI150
aI153
aI155
aI156
aI156
aI156
aI157
aI157
aI157
aI157
aI157
aI158
aI158
aI158
aI159
aI160
aI160
aI161
aI161
aI162
aI163
aI163
aI164
aI164
aI164
aI165
aI166
asa(dp8
g4
(lp9
I0
aI10
aI20
aI30
aI40
aI50
aI60
aI70
aI80
aI90
aI100
aI110
aI120
aI130
aI140
aI150
aI160
aI170
aI180
aI190
aI200
aI210
aI220
aI230
aI240
aI250
aI260
aI270
aI280
aI290
aI300
aI310
aI320
aI330
aI340
aI350
aI360
aI370
aI380
aI390
aI400
aI410
aI420
aI430
aI440
aI450
aI460
aI470
aI480
aI490
aI500
aI510
aI520
aI530
aI540
aI550
aI560
aI570
aI580
aI590
aI600
aI610
aI620
aI630
aI640
aI650
aI660
aI670
aI680
aI690
aI700
aI710
aI720
aI730
asg6
(lp10
I0
aI7
aI15
aI18
aI26
aI31
aI39
aI44
aI49
aI54
aI61
aI68
aI73
aI79
aI85
aI91
aI91
aI97
aI102
aI104
aI107
aI109
aI113
aI114
aI115
aI117
aI118
aI123
aI124
aI125
aI129
aI130
aI131
aI133
aI133
aI133
aI136
aI136
aI137
aI139
aI142
aI144
aI144
aI145
aI146
aI146
aI148
aI148
aI148
aI150
aI151
aI151
aI154
aI155
aI155
aI156
aI157
aI158
aI159
aI161
aI161
aI161
aI161
aI161
aI162
aI162
aI162
aI162
aI163
aI164
aI164
aI165
aI165
aI166
asa(dp11
g4
(lp12
I0
aI10
aI20
aI30
aI40
aI50
aI60
aI70
aI80
aI90
aI100
aI110
aI120
aI130
aI140
aI150
aI160
aI170
aI180
aI190
aI200
aI210
aI220
aI230
aI240
aI250
aI260
aI270
aI280
aI290
aI300
aI310
aI320
aI330
aI340
aI350
aI360
aI370
aI380
aI390
aI400
aI410
aI420
aI430
aI440
aI450
aI460
aI470
aI480
aI490
aI500
aI510
aI520
aI530
aI540
aI550
aI560
aI570
aI580
aI590
aI600
aI610
aI620
aI630
aI640
aI650
aI660
aI670
aI680
aI690
aI700
aI710
asg6
(lp13
I0
aI10
aI15
aI24
aI27
aI33
aI42
aI45
aI49
aI55
aI60
aI67
aI71
aI75
aI78
aI84
aI89
aI93
aI96
aI103
aI109
aI111
aI114
aI118
aI121
aI123
aI124
aI125
aI126
aI126
aI128
aI131
aI136
aI136
aI137
aI137
aI139
aI140
aI143
aI144
aI144
aI146
aI146
aI148
aI149
aI149
aI150
aI150
aI152
aI155
aI155
aI156
aI156
aI156
aI156
aI156
aI158
aI159
aI160
aI160
aI160
aI160
aI160
aI160
aI160
aI161
aI162
aI162
aI163
aI163
aI165
aI166
asa(dp14
g4
(lp15
I0
aI10
aI20
aI30
aI40
aI50
aI60
aI70
aI80
aI90
aI100
aI110
aI120
aI130
aI140
aI150
aI160
aI170
aI180
aI190
aI200
aI210
aI220
aI230
aI240
aI250
aI260
aI270
aI280
aI290
aI300
aI310
aI320
aI330
aI340
aI350
aI360
aI370
aI380
aI390
aI400
aI410
aI420
aI430
aI440
aI450
aI460
aI470
aI480
aI490
aI500
aI510
aI520
aI530
aI540
aI550
aI560
aI570
aI580
aI590
aI600
aI610
aI620
aI630
aI640
aI650
aI660
aI670
aI680
aI690
aI700
aI710
aI720
asg6
(lp16
I0
aI8
aI15
aI20
aI28
aI34
aI40
aI44
aI49
aI57
aI63
aI67
aI71
aI77
aI80
aI86
aI89
aI94
aI99
aI102
aI108
aI109
aI111
aI111
aI114
aI119
aI120
aI121
aI124
aI127
aI128
aI130
aI133
aI133
aI136
aI139
aI142
aI143
aI145
aI145
aI145
aI145
aI146
aI146
aI147
aI150
aI150
aI151
aI152
aI153
aI153
aI154
aI154
aI155
aI155
aI156
aI157
aI158
aI158
aI160
aI160
aI161
aI163
aI163
aI163
aI163
aI163
aI164
aI165
aI165
aI165
aI165
aI166
asa(dp17
g4
(lp18
I0
aI10
aI20
aI30
aI40
aI50
aI60
aI70
aI80
aI90
aI100
aI110
aI120
aI130
aI140
aI150
aI160
aI170
aI180
aI190
aI200
aI210
aI220
aI230
aI240
aI250
aI260
aI270
aI280
aI290
aI300
aI310
aI320
aI330
aI340
aI350
aI360
aI370
aI380
aI390
aI400
aI410
aI420
aI430
aI440
aI450
aI460
aI470
aI480
aI490
aI500
aI510
aI520
aI530
aI540
aI550
aI560
aI570
aI580
aI590
aI600
aI610
aI620
aI630
aI640
aI650
aI660
aI670
aI680
aI690
aI700
aI710
aI720
aI730
aI740
asg6
(lp19
I0
aI6
aI13
aI19
aI24
aI32
aI39
aI44
aI50
aI58
aI63
aI68
aI74
aI78
aI81
aI87
aI92
aI93
aI97
aI102
aI107
aI109
aI112
aI115
aI120
aI122
aI123
aI124
aI125
aI127
aI129
aI130
aI131
aI134
aI134
aI135
aI136
aI137
aI138
aI141
aI144
aI145
aI146
aI146
aI146
aI147
aI148
aI149
aI150
aI150
aI151
aI152
aI154
aI155
aI155
aI155
aI157
aI158
aI159
aI159
aI159
aI159
aI160
aI161
aI161
aI162
aI162
aI162
aI163
aI164
aI165
aI165
aI165
aI165
aI166
asa(dp20
g4
(lp21
I0
aI10
aI20
aI30
aI40
aI50
aI60
aI70
aI80
aI90
aI100
aI110
aI120
aI130
aI140
aI150
aI160
aI170
aI180
aI190
aI200
aI210
aI220
aI230
aI240
aI250
aI260
aI270
aI280
aI290
aI300
aI310
aI320
aI330
aI340
aI350
aI360
aI370
aI380
aI390
aI400
aI410
aI420
aI430
aI440
aI450
aI460
aI470
aI480
aI490
aI500
aI510
aI520
aI530
aI540
aI550
aI560
aI570
aI580
aI590
aI600
aI610
aI620
aI630
aI640
aI650
aI660
aI670
aI680
aI690
aI700
aI710
aI720
aI730
asg6
(lp22
I0
aI8
aI17
aI23
aI28
aI32
aI39
aI45
aI49
aI56
aI60
aI66
aI72
aI79
aI85
aI91
aI95
aI98
aI100
aI102
aI106
aI109
aI111
aI113
aI116
aI117
aI118
aI119
aI122
aI125
aI127
aI128
aI130
aI132
aI135
aI136
aI139
aI140
aI140
aI141
aI144
aI144
aI146
aI146
aI150
aI151
aI151
aI151
aI154
aI154
aI155
aI156
aI157
aI157
aI157
aI159
aI160
aI160
aI160
aI161
aI161
aI161
aI161
aI161
aI162
aI163
aI163
aI163
aI163
aI163
aI163
aI165
aI165
aI166
asa(dp23
g4
(lp24
I0
aI10
aI20
aI30
aI40
aI50
aI60
aI70
aI80
aI90
aI100
aI110
aI120
aI130
aI140
aI150
aI160
aI170
aI180
aI190
aI200
aI210
aI220
aI230
aI240
aI250
aI260
aI270
aI280
aI290
aI300
aI310
aI320
aI330
aI340
aI350
aI360
aI370
aI380
aI390
aI400
aI410
aI420
aI430
aI440
aI450
aI460
aI470
aI480
aI490
aI500
aI510
aI520
aI530
aI540
aI550
aI560
aI570
aI580
aI590
aI600
aI610
aI620
aI630
aI640
aI650
aI660
aI670
aI680
aI690
aI700
asg6
(lp25
I0
aI6
aI13
aI20
aI27
aI33
aI39
aI46
aI50
aI52
aI60
aI67
aI74
aI81
aI84
aI86
aI92
aI98
aI101
aI105
aI108
aI114
aI115
aI115
aI115
aI116
aI120
aI124
aI126
aI128
aI128
aI131
aI131
aI133
aI136
aI139
aI140
aI142
aI143
aI144
aI145
aI145
aI146
aI148
aI148
aI148
aI150
aI150
aI152
aI153
aI153
aI154
aI154
aI155
aI155
aI157
aI157
aI157
aI158
aI159
aI160
aI161
aI162
aI162
aI163
aI163
aI163
aI163
aI164
aI165
aI166
asa(dp26
g4
(lp27
I0
aI10
aI20
aI30
aI40
aI50
aI60
aI70
aI80
aI90
aI100
aI110
aI120
aI130
aI140
aI150
aI160
aI170
aI180
aI190
aI200
aI210
aI220
aI230
aI240
aI250
aI260
aI270
aI280
aI290
aI300
aI310
aI320
aI330
aI340
aI350
aI360
aI370
aI380
aI390
aI400
aI410
aI420
aI430
aI440
aI450
aI460
aI470
aI480
aI490
aI500
aI510
aI520
aI530
aI540
aI550
aI560
aI570
aI580
aI590
aI600
aI610
aI620
aI630
aI640
aI650
aI660
aI670
aI680
aI690
aI700
aI710
aI720
asg6
(lp28
I0
aI6
aI14
aI20
aI28
aI33
aI40
aI44
aI51
aI56
aI63
aI65
aI71
aI77
aI85
aI89
aI93
aI98
aI100
aI104
aI106
aI107
aI110
aI112
aI113
aI115
aI117
aI119
aI121
aI122
aI123
aI124
aI127
aI129
aI133
aI136
aI139
aI140
aI141
aI142
aI143
aI144
aI145
aI148
aI150
aI150
aI152
aI152
aI153
aI153
aI154
aI155
aI156
aI156
aI158
aI159
aI160
aI161
aI161
aI162
aI162
aI163
aI163
aI163
aI163
aI163
aI163
aI163
aI163
aI164
aI164
aI165
aI166
asa(dp29
g4
(lp30
I0
aI10
aI20
aI30
aI40
aI50
aI60
aI70
aI80
aI90
aI100
aI110
aI120
aI130
aI140
aI150
aI160
aI170
aI180
aI190
aI200
aI210
aI220
aI230
aI240
aI250
aI260
aI270
aI280
aI290
aI300
aI310
aI320
aI330
aI340
aI350
aI360
aI370
aI380
aI390
aI400
aI410
aI420
aI430
aI440
aI450
aI460
aI470
aI480
aI490
aI500
aI510
aI520
aI530
aI540
aI550
aI560
aI570
aI580
aI590
aI600
aI610
aI620
aI630
aI640
aI650
aI660
aI670
aI680
aI690
aI700
aI710
aI720
aI730
aI740
asg6
(lp31
I0
aI6
aI11
aI19
aI22
aI28
aI37
aI44
aI49
aI55
aI62
aI70
aI75
aI77
aI80
aI85
aI89
aI94
aI97
aI101
aI105
aI106
aI109
aI112
aI116
aI117
aI119
aI121
aI124
aI126
aI127
aI128
aI129
aI131
aI132
aI133
aI134
aI135
aI136
aI137
aI138
aI140
aI141
aI146
aI148
aI148
aI150
aI151
aI151
aI152
aI153
aI154
aI156
aI158
aI158
aI158
aI159
aI159
aI159
aI159
aI159
aI159
aI159
aI159
aI160
aI161
aI162
aI162
aI162
aI163
aI163
aI163
aI163
aI165
aI166
asa(dp32
g4
(lp33
I0
aI10
aI20
aI30
aI40
aI50
aI60
aI70
aI80
aI90
aI100
aI110
aI120
aI130
aI140
aI150
aI160
aI170
aI180
aI190
aI200
aI210
aI220
aI230
aI240
aI250
aI260
aI270
aI280
aI290
aI300
aI310
aI320
aI330
aI340
aI350
aI360
aI370
aI380
aI390
aI400
aI410
aI420
aI430
aI440
aI450
aI460
aI470
aI480
aI490
aI500
aI510
aI520
aI530
aI540
aI550
aI560
aI570
aI580
aI590
aI600
aI610
aI620
aI630
aI640
aI650
aI660
aI670
aI680
aI690
aI700
aI710
aI720
aI730
aI740
asg6
(lp34
I0
aI7
aI15
aI22
aI29
aI35
aI44
aI49
aI52
aI57
aI66
aI74
aI78
aI81
aI83
aI85
aI90
aI92
aI97
aI103
aI106
aI108
aI111
aI113
aI115
aI117
aI118
aI119
aI123
aI124
aI127
aI127
aI127
aI131
aI131
aI132
aI135
aI137
aI138
aI138
aI141
aI143
aI145
aI146
aI149
aI150
aI151
aI151
aI153
aI155
aI156
aI156
aI156
aI157
aI158
aI159
aI160
aI160
aI160
aI161
aI161
aI161
aI162
aI163
aI163
aI163
aI164
aI164
aI164
aI164
aI165
aI165
aI165
aI165
aI166
asa(dp35
g4
(lp36
I0
aI10
aI20
aI30
aI40
aI50
aI60
aI70
aI80
aI90
aI100
aI110
aI120
aI130
aI140
aI150
aI160
aI170
aI180
aI190
aI200
aI210
aI220
aI230
aI240
aI250
aI260
aI270
aI280
aI290
aI300
aI310
aI320
aI330
aI340
aI350
aI360
aI370
aI380
aI390
aI400
aI410
aI420
aI430
aI440
aI450
aI460
aI470
aI480
aI490
aI500
aI510
aI520
aI530
aI540
aI550
aI560
aI570
aI580
aI590
aI600
aI610
aI620
aI630
aI640
aI650
aI660
aI670
aI680
aI690
aI700
aI710
aI720
asg6
(lp37
I0
aI7
aI13
aI18
aI26
aI31
aI37
aI41
aI45
aI52
aI56
aI62
aI66
aI73
aI78
aI82
aI87
aI89
aI92
aI98
aI102
aI109
aI112
aI113
aI117
aI119
aI122
aI122
aI125
aI126
aI128
aI130
aI131
aI132
aI133
aI137
aI138
aI138
aI139
aI139
aI143
aI143
aI144
aI146
aI147
aI148
aI148
aI150
aI151
aI152
aI154
aI156
aI156
aI156
aI157
aI158
aI159
aI160
aI160
aI161
aI162
aI163
aI163
aI164
aI164
aI164
aI164
aI164
aI164
aI164
aI165
aI165
aI166
asa(dp38
g4
(lp39
I0
aI10
aI20
aI30
aI40
aI50
aI60
aI70
aI80
aI90
aI100
aI110
aI120
aI130
aI140
aI150
aI160
aI170
aI180
aI190
aI200
aI210
aI220
aI230
aI240
aI250
aI260
aI270
aI280
aI290
aI300
aI310
aI320
aI330
aI340
aI350
aI360
aI370
aI380
aI390
aI400
aI410
aI420
aI430
aI440
aI450
aI460
aI470
aI480
aI490
aI500
aI510
aI520
aI530
aI540
aI550
aI560
aI570
aI580
aI590
aI600
aI610
aI620
aI630
aI640
aI650
aI660
aI670
aI680
aI690
aI700
aI710
aI720
aI730
aI740
asg6
(lp40
I0
aI5
aI13
aI19
aI25
aI32
aI36
aI41
aI48
aI52
aI61
aI65
aI70
aI75
aI80
aI87
aI93
aI95
aI96
aI101
aI105
aI107
aI112
aI114
aI117
aI120
aI122
aI124
aI126
aI128
aI130
aI131
aI134
aI135
aI137
aI137
aI139
aI140
aI140
aI141
aI144
aI145
aI145
aI145
aI146
aI146
aI148
aI149
aI150
aI150
aI151
aI151
aI153
aI154
aI155
aI156
aI156
aI156
aI157
aI158
aI161
aI161
aI162
aI163
aI163
aI163
aI163
aI163
aI163
aI164
aI164
aI165
aI165
aI165
aI166
asa(dp41
g4
(lp42
I0
aI10
aI20
aI30
aI40
aI50
aI60
aI70
aI80
aI90
aI100
aI110
aI120
aI130
aI140
aI150
aI160
aI170
aI180
aI190
aI200
aI210
aI220
aI230
aI240
aI250
aI260
aI270
aI280
aI290
aI300
aI310
aI320
aI330
aI340
aI350
aI360
aI370
aI380
aI390
aI400
aI410
aI420
aI430
aI440
aI450
aI460
aI470
aI480
aI490
aI500
aI510
aI520
aI530
aI540
aI550
aI560
aI570
aI580
aI590
aI600
aI610
aI620
aI630
aI640
aI650
aI660
aI670
aI680
aI690
aI700
aI710
aI720
aI730
asg6
(lp43
I0
aI7
aI15
aI18
aI25
aI33
aI42
aI47
aI54
aI60
aI65
aI70
aI76
aI80
aI86
aI92
aI96
aI98
aI101
aI103
aI107
aI109
aI109
aI112
aI115
aI115
aI120
aI122
aI125
aI126
aI126
aI129
aI130
aI130
aI132
aI133
aI136
aI138
aI139
aI141
aI142
aI146
aI147
aI148
aI148
aI149
aI149
aI150
aI150
aI151
aI153
aI153
aI154
aI154
aI155
aI157
aI157
aI159
aI159
aI159
aI159
aI159
aI160
aI162
aI163
aI163
aI163
aI164
aI164
aI164
aI164
aI165
aI165
aI166
asa(dp44
g4
(lp45
I0
aI10
aI20
aI30
aI40
aI50
aI60
aI70
aI80
aI90
aI100
aI110
aI120
aI130
aI140
aI150
aI160
aI170
aI180
aI190
aI200
aI210
aI220
aI230
aI240
aI250
aI260
aI270
aI280
aI290
aI300
aI310
aI320
aI330
aI340
aI350
aI360
aI370
aI380
aI390
aI400
aI410
aI420
aI430
aI440
aI450
aI460
aI470
aI480
aI490
aI500
aI510
aI520
aI530
aI540
aI550
aI560
aI570
aI580
aI590
aI600
aI610
aI620
aI630
aI640
aI650
aI660
aI670
aI680
aI690
aI700
aI710
aI720
asg6
(lp46
I0
aI4
aI11
aI19
aI25
aI31
aI38
aI44
aI49
aI53
aI59
aI65
aI71
aI75
aI81
aI84
aI89
aI91
aI93
aI95
aI101
aI105
aI106
aI108
aI113
aI115
aI116
aI119
aI121
aI122
aI123
aI125
aI128
aI129
aI130
aI134
aI137
aI137
aI140
aI141
aI142
aI143
aI143
aI143
aI145
aI146
aI147
aI149
aI151
aI151
aI152
aI153
aI154
aI154
aI156
aI157
aI158
aI158
aI159
aI159
aI159
aI159
aI160
aI161
aI161
aI162
aI162
aI163
aI163
aI163
aI165
aI165
aI166
asa(dp47
g4
(lp48
I0
aI10
aI20
aI30
aI40
aI50
aI60
aI70
aI80
aI90
aI100
aI110
aI120
aI130
aI140
aI150
aI160
aI170
aI180
aI190
aI200
aI210
aI220
aI230
aI240
aI250
aI260
aI270
aI280
aI290
aI300
aI310
aI320
aI330
aI340
aI350
aI360
aI370
aI380
aI390
aI400
aI410
aI420
aI430
aI440
aI450
aI460
aI470
aI480
aI490
aI500
aI510
aI520
aI530
aI540
aI550
aI560
aI570
aI580
aI590
aI600
aI610
aI620
aI630
aI640
aI650
aI660
aI670
aI680
aI690
aI700
aI710
aI720
asg6
(lp49
I0
aI7
aI16
aI23
aI31
aI38
aI44
aI47
aI54
aI60
aI63
aI67
aI73
aI76
aI80
aI81
aI86
aI89
aI95
aI98
aI100
aI103
aI107
aI110
aI112
aI115
aI115
aI118
aI119
aI121
aI122
aI125
aI125
aI125
aI129
aI131
aI131
aI134
aI135
aI136
aI137
aI138
aI142
aI143
aI143
aI143
aI147
aI150
aI153
aI153
aI153
aI153
aI154
aI157
aI157
aI158
aI158
aI158
aI159
aI159
aI159
aI160
aI160
aI161
aI161
aI162
aI162
aI163
aI164
aI164
aI164
aI165
aI166
asa(dp50
g4
(lp51
I0
aI10
aI20
aI30
aI40
aI50
aI60
aI70
aI80
aI90
aI100
aI110
aI120
aI130
aI140
aI150
aI160
aI170
aI180
aI190
aI200
aI210
aI220
aI230
aI240
aI250
aI260
aI270
aI280
aI290
aI300
aI310
aI320
aI330
aI340
aI350
aI360
aI370
aI380
aI390
aI400
aI410
aI420
aI430
aI440
aI450
aI460
aI470
aI480
aI490
aI500
aI510
aI520
aI530
aI540
aI550
aI560
aI570
aI580
aI590
aI600
aI610
aI620
aI630
aI640
aI650
aI660
aI670
aI680
aI690
aI700
aI710
aI720
aI730
aI740
asg6
(lp52
I0
aI10
aI14
aI22
aI27
aI33
aI36
aI40
aI48
aI55
aI62
aI68
aI73
aI79
aI84
aI87
aI92
aI96
aI100
aI103
aI104
aI107
aI111
aI112
aI116
aI118
aI122
aI125
aI125
aI129
aI129
aI131
aI132
aI134
aI136
aI138
aI142
aI145
aI145
aI146
aI147
aI148
aI149
aI150
aI150
aI151
aI151
aI152
aI152
aI152
aI152
aI154
aI155
aI155
aI156
aI156
aI157
aI157
aI157
aI157
aI158
aI159
aI160
aI160
aI161
aI162
aI162
aI163
aI164
aI164
aI164
aI165
aI165
aI165
aI166
asa(dp53
g4
(lp54
I0
aI10
aI20
aI30
aI40
aI50
aI60
aI70
aI80
aI90
aI100
aI110
aI120
aI130
aI140
aI150
aI160
aI170
aI180
aI190
aI200
aI210
aI220
aI230
aI240
aI250
aI260
aI270
aI280
aI290
aI300
aI310
aI320
aI330
aI340
aI350
aI360
aI370
aI380
aI390
aI400
aI410
aI420
aI430
aI440
aI450
aI460
aI470
aI480
aI490
aI500
aI510
aI520
aI530
aI540
aI550
aI560
aI570
aI580
aI590
aI600
aI610
aI620
aI630
aI640
aI650
aI660
aI670
aI680
aI690
aI700
aI710
aI720
aI730
asg6
(lp55
I0
aI10
aI14
aI21
aI28
aI35
aI39
aI46
aI49
aI55
aI60
aI63
aI70
aI74
aI79
aI82
aI87
aI92
aI96
aI100
aI103
aI105
aI106
aI110
aI111
aI115
aI116
aI117
aI119
aI121
aI124
aI126
aI126
aI129
aI130
aI132
aI136
aI137
aI138
aI139
aI140
aI141
aI142
aI143
aI145
aI147
aI148
aI150
aI150
aI152
aI153
aI154
aI154
aI154
aI157
aI157
aI157
aI157
aI159
aI159
aI159
aI160
aI161
aI161
aI162
aI162
aI162
aI163
aI163
aI164
aI164
aI165
aI165
aI166
asa(dp56
g4
(lp57
I0
aI10
aI20
aI30
aI40
aI50
aI60
aI70
aI80
aI90
aI100
aI110
aI120
aI130
aI140
aI150
aI160
aI170
aI180
aI190
aI200
aI210
aI220
aI230
aI240
aI250
aI260
aI270
aI280
aI290
aI300
aI310
aI320
aI330
aI340
aI350
aI360
aI370
aI380
aI390
aI400
aI410
aI420
aI430
aI440
aI450
aI460
aI470
aI480
aI490
aI500
aI510
aI520
aI530
aI540
aI550
aI560
aI570
aI580
aI590
aI600
aI610
aI620
aI630
aI640
aI650
aI660
aI670
aI680
aI690
aI700
aI710
asg6
(lp58
I0
aI7
aI12
aI21
aI26
aI33
aI40
aI43
aI49
aI52
aI59
aI62
aI70
aI75
aI77
aI85
aI91
aI95
aI98
aI102
aI105
aI108
aI111
aI116
aI116
aI117
aI121
aI123
aI126
aI127
aI127
aI129
aI135
aI137
aI141
aI141
aI143
aI144
aI144
aI145
aI146
aI148
aI148
aI148
aI150
aI150
aI152
aI153
aI153
aI154
aI154
aI154
aI155
aI155
aI155
aI155
aI155
aI155
aI157
aI158
aI158
aI159
aI160
aI161
aI162
aI162
aI163
aI163
aI163
aI164
aI165
aI166
asa(dp59
g4
(lp60
I0
aI10
aI20
aI30
aI40
aI50
aI60
aI70
aI80
aI90
aI100
aI110
aI120
aI130
aI140
aI150
aI160
aI170
aI180
aI190
aI200
aI210
aI220
aI230
aI240
aI250
aI260
aI270
aI280
aI290
aI300
aI310
aI320
aI330
aI340
aI350
aI360
aI370
aI380
aI390
aI400
aI410
aI420
aI430
aI440
aI450
aI460
aI470
aI480
aI490
aI500
aI510
aI520
aI530
aI540
aI550
aI560
aI570
aI580
aI590
aI600
aI610
aI620
aI630
aI640
aI650
aI660
aI670
aI680
aI690
aI700
aI710
asg6
(lp61
I0
aI8
aI12
aI20
aI26
aI33
aI39
aI46
aI50
aI58
aI62
aI68
aI74
aI78
aI83
aI87
aI92
aI94
aI98
aI104
aI106
aI108
aI112
aI114
aI116
aI118
aI120
aI121
aI122
aI123
aI127
aI132
aI134
aI135
aI135
aI138
aI139
aI140
aI141
aI142
aI143
aI146
aI149
aI150
aI150
aI150
aI151
aI151
aI151
aI152
aI152
aI152
aI152
aI153
aI155
aI158
aI160
aI160
aI161
aI161
aI161
aI161
aI163
aI164
aI164
aI164
aI165
aI165
aI165
aI165
aI165
aI166
asa(dp62
g4
(lp63
I0
aI10
aI20
aI30
aI40
aI50
aI60
aI70
aI80
aI90
aI100
aI110
aI120
aI130
aI140
aI150
aI160
aI170
aI180
aI190
aI200
aI210
aI220
aI230
aI240
aI250
aI260
aI270
aI280
aI290
aI300
aI310
aI320
aI330
aI340
aI350
aI360
aI370
aI380
aI390
aI400
aI410
aI420
aI430
aI440
aI450
aI460
aI470
aI480
aI490
aI500
aI510
aI520
aI530
aI540
aI550
aI560
aI570
aI580
aI590
aI600
aI610
aI620
aI630
aI640
aI650
aI660
aI670
aI680
aI690
aI700
aI710
aI720
aI730
aI740
asg6
(lp64
I0
aI6
aI11
aI17
aI24
aI31
aI39
aI45
aI50
aI57
aI63
aI66
aI71
aI73
aI77
aI84
aI88
aI90
aI93
aI96
aI100
aI103
aI107
aI111
aI113
aI117
aI120
aI124
aI126
aI129
aI131
aI132
aI132
aI133
aI135
aI136
aI136
aI137
aI138
aI139
aI141
aI141
aI144
aI145
aI145
aI146
aI150
aI151
aI153
aI154
aI154
aI156
aI156
aI156
aI157
aI158
aI158
aI158
aI158
aI158
aI158
aI159
aI160
aI162
aI162
aI163
aI163
aI163
aI163
aI164
aI164
aI164
aI164
aI165
aI166
asa(dp65
g4
(lp66
I0
aI10
aI20
aI30
aI40
aI50
aI60
aI70
aI80
aI90
aI100
aI110
aI120
aI130
aI140
aI150
aI160
aI170
aI180
aI190
aI200
aI210
aI220
aI230
aI240
aI250
aI260
aI270
aI280
aI290
aI300
aI310
aI320
aI330
aI340
aI350
aI360
aI370
aI380
aI390
aI400
aI410
aI420
aI430
aI440
aI450
aI460
aI470
aI480
aI490
aI500
aI510
aI520
aI530
aI540
aI550
aI560
aI570
aI580
aI590
aI600
aI610
aI620
aI630
aI640
aI650
aI660
aI670
aI680
aI690
aI700
aI710
aI720
aI730
aI740
asg6
(lp67
I0
aI6
aI14
aI19
aI26
aI31
aI35
aI41
aI48
aI54
aI59
aI65
aI72
aI76
aI79
aI84
aI89
aI91
aI95
aI98
aI102
aI105
aI109
aI113
aI115
aI117
aI119
aI122
aI122
aI123
aI125
aI125
aI129
aI130
aI131
aI132
aI134
aI135
aI136
aI139
aI140
aI141
aI144
aI146
aI146
aI148
aI148
aI150
aI151
aI151
aI152
aI154
aI154
aI154
aI155
aI155
aI155
aI156
aI157
aI158
aI158
aI158
aI159
aI160
aI160
aI161
aI161
aI161
aI161
aI162
aI164
aI164
aI165
aI165
aI166
asa(dp68
g4
(lp69
I0
aI10
aI20
aI30
aI40
aI50
aI60
aI70
aI80
aI90
aI100
aI110
aI120
aI130
aI140
aI150
aI160
aI170
aI180
aI190
aI200
aI210
aI220
aI230
aI240
aI250
aI260
aI270
aI280
aI290
aI300
aI310
aI320
aI330
aI340
aI350
aI360
aI370
aI380
aI390
aI400
aI410
aI420
aI430
aI440
aI450
aI460
aI470
aI480
aI490
aI500
aI510
aI520
aI530
aI540
aI550
aI560
aI570
aI580
aI590
aI600
aI610
aI620
aI630
aI640
aI650
aI660
aI670
aI680
aI690
aI700
aI710
aI720
aI730
asg6
(lp70
I0
aI9
aI13
aI19
aI24
aI30
aI37
aI43
aI50
aI57
aI63
aI68
aI71
aI77
aI81
aI85
aI91
aI96
aI101
aI105
aI109
aI111
aI112
aI113
aI114
aI117
aI117
aI119
aI123
aI124
aI126
aI128
aI130
aI133
aI134
aI135
aI137
aI139
aI143
aI144
aI144
aI145
aI146
aI147
aI147
aI148
aI149
aI150
aI151
aI151
aI151
aI152
aI153
aI154
aI154
aI155
aI155
aI156
aI158
aI159
aI159
aI160
aI160
aI161
aI162
aI162
aI162
aI162
aI163
aI164
aI164
aI165
aI165
aI166
asa(dp71
g4
(lp72
I0
aI10
aI20
aI30
aI40
aI50
aI60
aI70
aI80
aI90
aI100
aI110
aI120
aI130
aI140
aI150
aI160
aI170
aI180
aI190
aI200
aI210
aI220
aI230
aI240
aI250
aI260
aI270
aI280
aI290
aI300
aI310
aI320
aI330
aI340
aI350
aI360
aI370
aI380
aI390
aI400
aI410
aI420
aI430
aI440
aI450
aI460
aI470
aI480
aI490
aI500
aI510
aI520
aI530
aI540
aI550
aI560
aI570
aI580
aI590
aI600
aI610
aI620
aI630
aI640
aI650
aI660
aI670
aI680
aI690
aI700
aI710
aI720
asg6
(lp73
I0
aI4
aI10
aI18
aI24
aI31
aI40
aI47
aI51
aI59
aI63
aI68
aI71
aI75
aI79
aI85
aI90
aI95
aI99
aI102
aI105
aI109
aI109
aI112
aI114
aI117
aI119
aI121
aI124
aI125
aI127
aI129
aI130
aI135
aI135
aI135
aI137
aI137
aI138
aI138
aI139
aI141
aI142
aI143
aI143
aI144
aI145
aI148
aI150
aI150
aI151
aI152
aI153
aI153
aI155
aI155
aI155
aI157
aI157
aI157
aI158
aI158
aI158
aI160
aI162
aI163
aI163
aI163
aI164
aI165
aI165
aI165
aI166
asa(dp74
g4
(lp75
I0
aI10
aI20
aI30
aI40
aI50
aI60
aI70
aI80
aI90
aI100
aI110
aI120
aI130
aI140
aI150
aI160
aI170
aI180
aI190
aI200
aI210
aI220
aI230
aI240
aI250
aI260
aI270
aI280
aI290
aI300
aI310
aI320
aI330
aI340
aI350
aI360
aI370
aI380
aI390
aI400
aI410
aI420
aI430
aI440
aI450
aI460
aI470
aI480
aI490
aI500
aI510
aI520
aI530
aI540
aI550
aI560
aI570
aI580
aI590
aI600
aI610
aI620
aI630
aI640
aI650
aI660
aI670
aI680
aI690
aI700
aI710
aI720
asg6
(lp76
I0
aI8
aI15
aI24
aI31
aI39
aI44
aI51
aI59
aI65
aI69
aI72
aI76
aI79
aI85
aI88
aI93
aI95
aI99
aI104
aI106
aI108
aI113
aI115
aI118
aI118
aI120
aI121
aI122
aI123
aI125
aI127
aI129
aI131
aI132
aI133
aI133
aI135
aI138
aI139
aI140
aI142
aI142
aI144
aI146
aI147
aI147
aI149
aI151
aI153
aI154
aI154
aI154
aI155
aI157
aI157
aI158
aI160
aI160
aI160
aI160
aI160
aI161
aI162
aI163
aI165
aI165
aI165
aI165
aI165
aI165
aI165
aI166
asa(dp77
g4
(lp78
I0
aI10
aI20
aI30
aI40
aI50
aI60
aI70
aI80
aI90
aI100
aI110
aI120
aI130
aI140
aI150
aI160
aI170
aI180
aI190
aI200
aI210
aI220
aI230
aI240
aI250
aI260
aI270
aI280
aI290
aI300
aI310
aI320
aI330
aI340
aI350
aI360
aI370
aI380
aI390
aI400
aI410
aI420
aI430
aI440
aI450
aI460
aI470
aI480
aI490
aI500
aI510
aI520
aI530
aI540
aI550
aI560
aI570
aI580
aI590
aI600
aI610
aI620
aI630
aI640
aI650
aI660
aI670
aI680
aI690
aI700
aI710
aI720
aI730
aI740
asg6
(lp79
I0
aI7
aI11
aI17
aI25
aI33
aI40
aI45
aI51
aI56
aI58
aI65
aI71
aI76
aI81
aI86
aI90
aI95
aI100
aI102
aI106
aI110
aI113
aI116
aI118
aI122
aI124
aI125
aI126
aI129
aI129
aI130
aI132
aI134
aI136
aI137
aI139
aI140
aI141
aI142
aI143
aI143
aI144
aI147
aI147
aI148
aI150
aI150
aI151
aI152
aI152
aI152
aI153
aI153
aI154
aI154
aI155
aI155
aI155
aI156
aI157
aI158
aI159
aI160
aI163
aI163
aI163
aI164
aI165
aI165
aI165
aI165
aI165
aI165
aI166
asa(dp80
g4
(lp81
I0
aI10
aI20
aI30
aI40
aI50
aI60
aI70
aI80
aI90
aI100
aI110
aI120
aI130
aI140
aI150
aI160
aI170
aI180
aI190
aI200
aI210
aI220
aI230
aI240
aI250
aI260
aI270
aI280
aI290
aI300
aI310
aI320
aI330
aI340
aI350
aI360
aI370
aI380
aI390
aI400
aI410
aI420
aI430
aI440
aI450
aI460
aI470
aI480
aI490
aI500
aI510
aI520
aI530
aI540
aI550
aI560
aI570
aI580
aI590
aI600
aI610
aI620
aI630
aI640
aI650
aI660
aI670
aI680
aI690
aI700
aI710
aI720
asg6
(lp82
I0
aI7
aI13
aI19
aI26
aI33
aI38
aI43
aI47
aI54
aI59
aI65
aI66
aI72
aI79
aI82
aI88
aI92
aI97
aI100
aI105
aI110
aI111
aI114
aI116
aI116
aI118
aI121
aI122
aI123
aI125
aI125
aI125
aI129
aI130
aI130
aI132
aI132
aI134
aI137
aI139
aI143
aI144
aI144
aI146
aI147
aI147
aI149
aI150
aI150
aI153
aI153
aI154
aI155
aI155
aI155
aI156
aI156
aI156
aI157
aI158
aI160
aI161
aI161
aI161
aI161
aI162
aI162
aI163
aI164
aI165
aI165
aI166
asa(dp83
g4
(lp84
I0
aI10
aI20
aI30
aI40
aI50
aI60
aI70
aI80
aI90
aI100
aI110
aI120
aI130
aI140
aI150
aI160
aI170
aI180
aI190
aI200
aI210
aI220
aI230
aI240
aI250
aI260
aI270
aI280
aI290
aI300
aI310
aI320
aI330
aI340
aI350
aI360
aI370
aI380
aI390
aI400
aI410
aI420
aI430
aI440
aI450
aI460
aI470
aI480
aI490
aI500
aI510
aI520
aI530
aI540
aI550
aI560
aI570
aI580
aI590
aI600
aI610
aI620
aI630
aI640
aI650
aI660
aI670
aI680
aI690
aI700
aI710
aI720
asg6
(lp85
I0
aI6
aI13
aI21
aI31
aI36
aI44
aI51
aI55
aI60
aI64
aI68
aI71
aI77
aI82
aI85
aI88
aI92
aI98
aI105
aI109
aI111
aI113
aI117
aI120
aI120
aI123
aI123
aI126
aI128
aI128
aI129
aI131
aI132
aI133
aI135
aI135
aI135
aI137
aI137
aI140
aI143
aI146
aI147
aI148
aI148
aI149
aI150
aI151
aI152
aI153
aI153
aI153
aI154
aI154
aI155
aI156
aI158
aI159
aI161
aI161
aI161
aI161
aI162
aI162
aI163
aI163
aI164
aI164
aI164
aI164
aI164
aI166
asa(dp86
g4
(lp87
I0
aI10
aI20
aI30
aI40
aI50
aI60
aI70
aI80
aI90
aI100
aI110
aI120
aI130
aI140
aI150
aI160
aI170
aI180
aI190
aI200
aI210
aI220
aI230
aI240
aI250
aI260
aI270
aI280
aI290
aI300
aI310
aI320
aI330
aI340
aI350
aI360
aI370
aI380
aI390
aI400
aI410
aI420
aI430
aI440
aI450
aI460
aI470
aI480
aI490
aI500
aI510
aI520
aI530
aI540
aI550
aI560
aI570
aI580
aI590
aI600
aI610
aI620
aI630
aI640
aI650
aI660
aI670
aI680
aI690
aI700
aI710
aI720
asg6
(lp88
I0
aI6
aI13
aI20
aI27
aI33
aI39
aI48
aI55
aI61
aI67
aI74
aI76
aI81
aI85
aI88
aI92
aI94
aI97
aI100
aI101
aI103
aI106
aI110
aI114
aI118
aI120
aI120
aI120
aI121
aI123
aI124
aI125
aI127
aI129
aI131
aI134
aI137
aI138
aI142
aI143
aI144
aI146
aI147
aI149
aI149
aI150
aI151
aI151
aI154
aI155
aI156
aI156
aI156
aI158
aI158
aI159
aI159
aI159
aI159
aI159
aI159
aI160
aI161
aI162
aI162
aI163
aI163
aI164
aI164
aI164
aI165
aI166
asa(dp89
g4
(lp90
I0
aI10
aI20
aI30
aI40
aI50
aI60
aI70
aI80
aI90
aI100
aI110
aI120
aI130
aI140
aI150
aI160
aI170
aI180
aI190
aI200
aI210
aI220
aI230
aI240
aI250
aI260
aI270
aI280
aI290
aI300
aI310
aI320
aI330
aI340
aI350
aI360
aI370
aI380
aI390
aI400
aI410
aI420
aI430
aI440
aI450
aI460
aI470
aI480
aI490
aI500
aI510
aI520
aI530
aI540
aI550
aI560
aI570
aI580
aI590
aI600
aI610
aI620
aI630
aI640
aI650
aI660
aI670
aI680
aI690
aI700
aI710
asg6
(lp91
I0
aI7
aI14
aI18
aI25
aI31
aI37
aI45
aI50
aI56
aI59
aI67
aI73
aI80
aI83
aI85
aI90
aI93
aI97
aI98
aI102
aI107
aI111
aI112
aI114
aI120
aI120
aI120
aI123
aI125
aI127
aI128
aI128
aI130
aI132
aI133
aI136
aI139
aI142
aI143
aI144
aI147
aI150
aI153
aI153
aI153
aI154
aI154
aI155
aI155
aI156
aI156
aI156
aI156
aI156
aI157
aI159
aI160
aI160
aI161
aI162
aI162
aI162
aI163
aI163
aI163
aI163
aI163
aI163
aI164
aI165
aI166
asa(dp92
g4
(lp93
I0
aI10
aI20
aI30
aI40
aI50
aI60
aI70
aI80
aI90
aI100
aI110
aI120
aI130
aI140
aI150
aI160
aI170
aI180
aI190
aI200
aI210
aI220
aI230
aI240
aI250
aI260
aI270
aI280
aI290
aI300
aI310
aI320
aI330
aI340
aI350
aI360
aI370
aI380
aI390
aI400
aI410
aI420
aI430
aI440
aI450
aI460
aI470
aI480
aI490
aI500
aI510
aI520
aI530
aI540
aI550
aI560
aI570
aI580
aI590
aI600
aI610
aI620
aI630
aI640
aI650
aI660
aI670
aI680
aI690
aI700
aI710
aI720
aI730
asg6
(lp94
I0
aI7
aI15
aI22
aI27
aI33
aI40
aI44
aI51
aI57
aI63
aI68
aI70
aI76
aI81
aI87
aI92
aI93
aI98
aI101
aI106
aI111
aI114
aI114
aI119
aI122
aI122
aI123
aI124
aI125
aI126
aI126
aI127
aI128
aI132
aI133
aI133
aI135
aI137
aI138
aI141
aI141
aI141
aI142
aI142
aI145
aI146
aI149
aI149
aI150
aI151
aI153
aI155
aI157
aI157
aI157
aI159
aI160
aI160
aI161
aI162
aI162
aI162
aI162
aI162
aI162
aI162
aI163
aI163
aI163
aI164
aI165
aI165
aI166
asasS'LR'
p95
(lp96
(dp97
g4
(lp98
I0
aI10
aI20
aI30
aI40
aI50
aI60
aI70
aI80
aI90
aI100
aI110
aI120
aI130
aI140
aI150
aI160
aI170
aI180
aI190
aI200
aI210
aI220
aI230
aI240
aI250
aI260
aI270
aI280
aI290
aI300
aI310
aI320
aI330
aI340
aI350
aI360
aI370
aI380
aI390
aI400
aI410
aI420
aI430
aI440
aI450
aI460
aI470
aI480
aI490
aI500
aI510
aI520
aI530
aI540
aI550
aI560
aI570
aI580
aI590
aI600
aI610
aI620
aI630
aI640
aI650
aI660
aI670
aI680
aI690
aI700
aI710
aI720
aI730
asg6
(lp99
I0
aI8
aI16
aI23
aI30
aI37
aI44
aI49
aI53
aI62
aI68
aI74
aI77
aI83
aI89
aI94
aI99
aI101
aI102
aI105
aI109
aI112
aI113
aI116
aI117
aI117
aI118
aI120
aI121
aI123
aI123
aI125
aI126
aI127
aI133
aI134
aI135
aI135
aI137
aI139
aI140
aI144
aI144
aI145
aI145
aI148
aI150
aI151
aI154
aI155
aI156
aI156
aI157
aI157
aI157
aI157
aI157
aI157
aI157
aI158
aI158
aI158
aI162
aI162
aI162
aI162
aI162
aI162
aI162
aI163
aI163
aI163
aI163
aI166
asa(dp100
g4
(lp101
I0
aI10
aI20
aI30
aI40
aI50
aI60
aI70
aI80
aI90
aI100
aI110
aI120
aI130
aI140
aI150
aI160
aI170
aI180
aI190
aI200
aI210
aI220
aI230
aI240
aI250
aI260
aI270
aI280
aI290
aI300
aI310
aI320
aI330
aI340
aI350
aI360
aI370
aI380
aI390
aI400
aI410
aI420
aI430
aI440
aI450
aI460
aI470
aI480
aI490
aI500
aI510
aI520
aI530
aI540
aI550
aI560
aI570
aI580
aI590
aI600
aI610
aI620
aI630
aI640
aI650
aI660
aI670
aI680
aI690
aI700
aI710
aI720
aI730
asg6
(lp102
I0
aI7
aI15
aI23
aI29
aI37
aI44
aI48
aI53
aI60
aI67
aI74
aI79
aI82
aI89
aI93
aI96
aI101
aI102
aI105
aI109
aI112
aI113
aI116
aI117
aI117
aI118
aI120
aI121
aI123
aI123
aI125
aI126
aI127
aI133
aI134
aI135
aI135
aI137
aI139
aI140
aI144
aI144
aI145
aI145
aI148
aI150
aI151
aI154
aI155
aI156
aI156
aI157
aI157
aI157
aI157
aI157
aI157
aI157
aI158
aI158
aI158
aI162
aI162
aI162
aI162
aI162
aI162
aI162
aI163
aI163
aI163
aI163
aI166
asa(dp103
g4
(lp104
I0
aI10
aI20
aI30
aI40
aI50
aI60
aI70
aI80
aI90
aI100
aI110
aI120
aI130
aI140
aI150
aI160
aI170
aI180
aI190
aI200
aI210
aI220
aI230
aI240
aI250
aI260
aI270
aI280
aI290
aI300
aI310
aI320
aI330
aI340
aI350
aI360
aI370
aI380
aI390
aI400
aI410
aI420
aI430
aI440
aI450
aI460
aI470
aI480
aI490
aI500
aI510
aI520
aI530
aI540
aI550
aI560
aI570
aI580
aI590
aI600
aI610
aI620
aI630
aI640
aI650
aI660
aI670
aI680
aI690
aI700
aI710
aI720
aI730
asg6
(lp105
I0
aI8
aI15
aI23
aI30
aI36
aI43
aI48
aI54
aI61
aI66
aI74
aI77
aI83
aI90
aI96
aI99
aI101
aI101
aI105
aI109
aI112
aI113
aI116
aI117
aI117
aI118
aI120
aI121
aI123
aI123
aI125
aI126
aI127
aI133
aI134
aI135
aI135
aI137
aI139
aI140
aI144
aI144
aI145
aI145
aI148
aI150
aI151
aI154
aI155
aI156
aI156
aI157
aI157
aI157
aI157
aI157
aI157
aI157
aI158
aI158
aI158
aI162
aI162
aI162
aI162
aI162
aI162
aI162
aI163
aI163
aI163
aI163
aI166
asa(dp106
g4
(lp107
I0
aI10
aI20
aI30
aI40
aI50
aI60
aI70
aI80
aI90
aI100
aI110
aI120
aI130
aI140
aI150
aI160
aI170
aI180
aI190
aI200
aI210
aI220
aI230
aI240
aI250
aI260
aI270
aI280
aI290
aI300
aI310
aI320
aI330
aI340
aI350
aI360
aI370
aI380
aI390
aI400
aI410
aI420
aI430
aI440
aI450
aI460
aI470
aI480
aI490
aI500
aI510
aI520
aI530
aI540
aI550
aI560
aI570
aI580
aI590
aI600
aI610
aI620
aI630
aI640
aI650
aI660
aI670
aI680
aI690
aI700
aI710
aI720
aI730
asg6
(lp108
I0
aI8
aI15
aI22
aI29
aI36
aI45
aI49
aI54
aI61
aI68
aI75
aI80
aI84
aI89
aI95
aI99
aI100
aI101
aI106
aI110
aI112
aI113
aI116
aI117
aI117
aI118
aI120
aI121
aI123
aI123
aI125
aI126
aI127
aI133
aI134
aI135
aI135
aI137
aI139
aI140
aI144
aI144
aI145
aI145
aI148
aI150
aI151
aI154
aI155
aI156
aI156
aI157
aI157
aI157
aI157
aI157
aI157
aI157
aI158
aI158
aI158
aI162
aI162
aI162
aI162
aI162
aI162
aI162
aI163
aI163
aI163
aI163
aI166
asa(dp109
g4
(lp110
I0
aI10
aI20
aI30
aI40
aI50
aI60
aI70
aI80
aI90
aI100
aI110
aI120
aI130
aI140
aI150
aI160
aI170
aI180
aI190
aI200
aI210
aI220
aI230
aI240
aI250
aI260
aI270
aI280
aI290
aI300
aI310
aI320
aI330
aI340
aI350
aI360
aI370
aI380
aI390
aI400
aI410
aI420
aI430
aI440
aI450
aI460
aI470
aI480
aI490
aI500
aI510
aI520
aI530
aI540
aI550
aI560
aI570
aI580
aI590
aI600
aI610
aI620
aI630
aI640
aI650
aI660
aI670
aI680
aI690
aI700
aI710
aI720
aI730
asg6
(lp111
I0
aI7
aI14
aI21
aI29
aI36
aI43
aI48
aI55
aI62
aI67
aI72
aI77
aI83
aI88
aI93
aI98
aI100
aI101
aI105
aI110
aI113
aI113
aI116
aI117
aI117
aI118
aI120
aI121
aI123
aI123
aI125
aI126
aI127
aI133
aI134
aI135
aI135
aI137
aI139
aI140
aI144
aI144
aI145
aI145
aI148
aI150
aI151
aI154
aI155
aI156
aI156
aI157
aI157
aI157
aI157
aI157
aI157
aI157
aI158
aI158
aI158
aI162
aI162
aI162
aI162
aI162
aI162
aI162
aI163
aI163
aI163
aI163
aI166
asa(dp112
g4
(lp113
I0
aI10
aI20
aI30
aI40
aI50
aI60
aI70
aI80
aI90
aI100
aI110
aI120
aI130
aI140
aI150
aI160
aI170
aI180
aI190
aI200
aI210
aI220
aI230
aI240
aI250
aI260
aI270
aI280
aI290
aI300
aI310
aI320
aI330
aI340
aI350
aI360
aI370
aI380
aI390
aI400
aI410
aI420
aI430
aI440
aI450
aI460
aI470
aI480
aI490
aI500
aI510
aI520
aI530
aI540
aI550
aI560
aI570
aI580
aI590
aI600
aI610
aI620
aI630
aI640
aI650
aI660
aI670
aI680
aI690
aI700
aI710
aI720
aI730
asg6
(lp114
I0
aI8
aI16
aI23
aI30
aI37
aI43
aI48
aI53
aI61
aI67
aI74
aI79
aI83
aI89
aI93
aI98
aI101
aI101
aI105
aI110
aI113
aI113
aI116
aI117
aI117
aI118
aI120
aI121
aI123
aI123
aI125
aI126
aI127
aI133
aI134
aI135
aI135
aI137
aI139
aI140
aI144
aI144
aI145
aI145
aI148
aI150
aI151
aI154
aI155
aI156
aI156
aI157
aI157
aI157
aI157
aI157
aI157
aI157
aI158
aI158
aI158
aI162
aI162
aI162
aI162
aI162
aI162
aI162
aI163
aI163
aI163
aI163
aI166
asa(dp115
g4
(lp116
I0
aI10
aI20
aI30
aI40
aI50
aI60
aI70
aI80
aI90
aI100
aI110
aI120
aI130
aI140
aI150
aI160
aI170
aI180
aI190
aI200
aI210
aI220
aI230
aI240
aI250
aI260
aI270
aI280
aI290
aI300
aI310
aI320
aI330
aI340
aI350
aI360
aI370
aI380
aI390
aI400
aI410
aI420
aI430
aI440
aI450
aI460
aI470
aI480
aI490
aI500
aI510
aI520
aI530
aI540
aI550
aI560
aI570
aI580
aI590
aI600
aI610
aI620
aI630
aI640
aI650
aI660
aI670
aI680
aI690
aI700
aI710
aI720
aI730
asg6
(lp117
I0
aI6
aI16
aI23
aI28
aI34
aI42
aI49
aI56
aI60
aI67
aI74
aI77
aI85
aI90
aI94
aI97
aI99
aI101
aI105
aI109
aI112
aI113
aI116
aI117
aI117
aI118
aI120
aI121
aI123
aI123
aI125
aI126
aI127
aI133
aI134
aI135
aI135
aI137
aI139
aI140
aI144
aI144
aI145
aI145
aI148
aI150
aI151
aI154
aI155
aI156
aI156
aI157
aI157
aI157
aI157
aI157
aI157
aI157
aI158
aI158
aI158
aI162
aI162
aI162
aI162
aI162
aI162
aI162
aI163
aI163
aI163
aI163
aI166
asa(dp118
g4
(lp119
I0
aI10
aI20
aI30
aI40
aI50
aI60
aI70
aI80
aI90
aI100
aI110
aI120
aI130
aI140
aI150
aI160
aI170
aI180
aI190
aI200
aI210
aI220
aI230
aI240
aI250
aI260
aI270
aI280
aI290
aI300
aI310
aI320
aI330
aI340
aI350
aI360
aI370
aI380
aI390
aI400
aI410
aI420
aI430
aI440
aI450
aI460
aI470
aI480
aI490
aI500
aI510
aI520
aI530
aI540
aI550
aI560
aI570
aI580
aI590
aI600
aI610
aI620
aI630
aI640
aI650
aI660
aI670
aI680
aI690
aI700
aI710
aI720
aI730
asg6
(lp120
I0
aI6
aI15
aI21
aI29
aI35
aI43
aI50
aI54
aI61
aI67
aI75
aI81
aI83
aI89
aI95
aI97
aI100
aI101
aI106
aI109
aI112
aI113
aI116
aI117
aI117
aI118
aI120
aI121
aI123
aI123
aI125
aI126
aI127
aI133
aI134
aI135
aI135
aI137
aI139
aI140
aI144
aI144
aI145
aI145
aI148
aI150
aI151
aI154
aI155
aI156
aI156
aI157
aI157
aI157
aI157
aI157
aI157
aI157
aI158
aI158
aI158
aI162
aI162
aI162
aI162
aI162
aI162
aI162
aI163
aI163
aI163
aI163
aI166
asa(dp121
g4
(lp122
I0
aI10
aI20
aI30
aI40
aI50
aI60
aI70
aI80
aI90
aI100
aI110
aI120
aI130
aI140
aI150
aI160
aI170
aI180
aI190
aI200
aI210
aI220
aI230
aI240
aI250
aI260
aI270
aI280
aI290
aI300
aI310
aI320
aI330
aI340
aI350
aI360
aI370
aI380
aI390
aI400
aI410
aI420
aI430
aI440
aI450
aI460
aI470
aI480
aI490
aI500
aI510
aI520
aI530
aI540
aI550
aI560
aI570
aI580
aI590
aI600
aI610
aI620
aI630
aI640
aI650
aI660
aI670
aI680
aI690
aI700
aI710
aI720
aI730
asg6
(lp123
I0
aI5
aI14
aI22
aI28
aI37
aI43
aI48
aI54
aI60
aI67
aI74
aI78
aI83
aI89
aI92
aI98
aI100
aI101
aI105
aI110
aI113
aI113
aI116
aI117
aI117
aI118
aI120
aI121
aI123
aI123
aI125
aI126
aI127
aI133
aI134
aI135
aI135
aI137
aI139
aI140
aI144
aI144
aI145
aI145
aI148
aI150
aI151
aI154
aI155
aI156
aI156
aI157
aI157
aI157
aI157
aI157
aI157
aI157
aI158
aI158
aI158
aI162
aI162
aI162
aI162
aI162
aI162
aI162
aI163
aI163
aI163
aI163
aI166
asa(dp124
g4
(lp125
I0
aI10
aI20
aI30
aI40
aI50
aI60
aI70
aI80
aI90
aI100
aI110
aI120
aI130
aI140
aI150
aI160
aI170
aI180
aI190
aI200
aI210
aI220
aI230
aI240
aI250
aI260
aI270
aI280
aI290
aI300
aI310
aI320
aI330
aI340
aI350
aI360
aI370
aI380
aI390
aI400
aI410
aI420
aI430
aI440
aI450
aI460
aI470
aI480
aI490
aI500
aI510
aI520
aI530
aI540
aI550
aI560
aI570
aI580
aI590
aI600
aI610
aI620
aI630
aI640
aI650
aI660
aI670
aI680
aI690
aI700
aI710
aI720
aI730
asg6
(lp126
I0
aI7
aI16
aI22
aI30
aI37
aI43
aI48
aI54
aI62
aI67
aI73
aI77
aI84
aI88
aI93
aI96
aI98
aI100
aI102
aI108
aI112
aI115
aI116
aI117
aI117
aI118
aI120
aI121
aI123
aI123
aI125
aI126
aI127
aI133
aI134
aI135
aI135
aI137
aI139
aI140
aI144
aI144
aI145
aI145
aI148
aI150
aI151
aI154
aI155
aI156
aI156
aI157
aI157
aI157
aI157
aI157
aI157
aI157
aI158
aI158
aI158
aI162
aI162
aI162
aI162
aI162
aI162
aI162
aI163
aI163
aI163
aI163
aI166
asa(dp127
g4
(lp128
I0
aI10
aI20
aI30
aI40
aI50
aI60
aI70
aI80
aI90
aI100
aI110
aI120
aI130
aI140
aI150
aI160
aI170
aI180
aI190
aI200
aI210
aI220
aI230
aI240
aI250
aI260
aI270
aI280
aI290
aI300
aI310
aI320
aI330
aI340
aI350
aI360
aI370
aI380
aI390
aI400
aI410
aI420
aI430
aI440
aI450
aI460
aI470
aI480
aI490
aI500
aI510
aI520
aI530
aI540
aI550
aI560
aI570
aI580
aI590
aI600
aI610
aI620
aI630
aI640
aI650
aI660
aI670
aI680
aI690
aI700
aI710
aI720
aI730
asg6
(lp129
I0
aI8
aI17
aI24
aI29
aI35
aI42
aI48
aI54
aI60
aI67
aI74
aI78
aI83
aI89
aI93
aI98
aI100
aI101
aI105
aI110
aI112
aI113
aI116
aI117
aI117
aI118
aI120
aI121
aI123
aI123
aI125
aI126
aI127
aI133
aI134
aI135
aI135
aI137
aI139
aI140
aI144
aI144
aI145
aI145
aI148
aI150
aI151
aI154
aI155
aI156
aI156
aI157
aI157
aI157
aI157
aI157
aI157
aI157
aI158
aI158
aI158
aI162
aI162
aI162
aI162
aI162
aI162
aI162
aI163
aI163
aI163
aI163
aI166
asa(dp130
g4
(lp131
I0
aI10
aI20
aI30
aI40
aI50
aI60
aI70
aI80
aI90
aI100
aI110
aI120
aI130
aI140
aI150
aI160
aI170
aI180
aI190
aI200
aI210
aI220
aI230
aI240
aI250
aI260
aI270
aI280
aI290
aI300
aI310
aI320
aI330
aI340
aI350
aI360
aI370
aI380
aI390
aI400
aI410
aI420
aI430
aI440
aI450
aI460
aI470
aI480
aI490
aI500
aI510
aI520
aI530
aI540
aI550
aI560
aI570
aI580
aI590
aI600
aI610
aI620
aI630
aI640
aI650
aI660
aI670
aI680
aI690
aI700
aI710
aI720
aI730
asg6
(lp132
I0
aI8
aI16
aI22
aI29
aI34
aI43
aI48
aI54
aI62
aI69
aI75
aI79
aI83
aI90
aI94
aI98
aI100
aI102
aI106
aI109
aI113
aI115
aI116
aI117
aI117
aI118
aI120
aI121
aI123
aI123
aI125
aI126
aI127
aI133
aI134
aI135
aI135
aI137
aI139
aI140
aI144
aI144
aI145
aI145
aI148
aI150
aI151
aI154
aI155
aI156
aI156
aI157
aI157
aI157
aI157
aI157
aI157
aI157
aI158
aI158
aI158
aI162
aI162
aI162
aI162
aI162
aI162
aI162
aI163
aI163
aI163
aI163
aI166
asa(dp133
g4
(lp134
I0
aI10
aI20
aI30
aI40
aI50
aI60
aI70
aI80
aI90
aI100
aI110
aI120
aI130
aI140
aI150
aI160
aI170
aI180
aI190
aI200
aI210
aI220
aI230
aI240
aI250
aI260
aI270
aI280
aI290
aI300
aI310
aI320
aI330
aI340
aI350
aI360
aI370
aI380
aI390
aI400
aI410
aI420
aI430
aI440
aI450
aI460
aI470
aI480
aI490
aI500
aI510
aI520
aI530
aI540
aI550
aI560
aI570
aI580
aI590
aI600
aI610
aI620
aI630
aI640
aI650
aI660
aI670
aI680
aI690
aI700
aI710
aI720
aI730
asg6
(lp135
I0
aI7
aI16
aI22
aI30
aI37
aI44
aI48
aI54
aI61
aI66
aI73
aI79
aI84
aI87
aI93
aI96
aI100
aI101
aI104
aI109
aI112
aI113
aI116
aI117
aI117
aI118
aI120
aI121
aI123
aI123
aI125
aI126
aI127
aI133
aI134
aI135
aI135
aI137
aI139
aI140
aI144
aI144
aI145
aI145
aI148
aI150
aI151
aI154
aI155
aI156
aI156
aI157
aI157
aI157
aI157
aI157
aI157
aI157
aI158
aI158
aI158
aI162
aI162
aI162
aI162
aI162
aI162
aI162
aI163
aI163
aI163
aI163
aI166
asa(dp136
g4
(lp137
I0
aI10
aI20
aI30
aI40
aI50
aI60
aI70
aI80
aI90
aI100
aI110
aI120
aI130
aI140
aI150
aI160
aI170
aI180
aI190
aI200
aI210
aI220
aI230
aI240
aI250
aI260
aI270
aI280
aI290
aI300
aI310
aI320
aI330
aI340
aI350
aI360
aI370
aI380
aI390
aI400
aI410
aI420
aI430
aI440
aI450
aI460
aI470
aI480
aI490
aI500
aI510
aI520
aI530
aI540
aI550
aI560
aI570
aI580
aI590
aI600
aI610
aI620
aI630
aI640
aI650
aI660
aI670
aI680
aI690
aI700
aI710
aI720
aI730
asg6
(lp138
I0
aI8
aI16
aI21
aI29
aI36
aI44
aI49
aI56
aI62
aI69
aI77
aI78
aI83
aI89
aI94
aI99
aI100
aI102
aI105
aI111
aI113
aI113
aI116
aI117
aI117
aI118
aI120
aI121
aI123
aI123
aI125
aI126
aI127
aI133
aI134
aI135
aI135
aI137
aI139
aI140
aI144
aI144
aI145
aI145
aI148
aI150
aI151
aI154
aI155
aI156
aI156
aI157
aI157
aI157
aI157
aI157
aI157
aI157
aI158
aI158
aI158
aI162
aI162
aI162
aI162
aI162
aI162
aI162
aI163
aI163
aI163
aI163
aI166
asa(dp139
g4
(lp140
I0
aI10
aI20
aI30
aI40
aI50
aI60
aI70
aI80
aI90
aI100
aI110
aI120
aI130
aI140
aI150
aI160
aI170
aI180
aI190
aI200
aI210
aI220
aI230
aI240
aI250
aI260
aI270
aI280
aI290
aI300
aI310
aI320
aI330
aI340
aI350
aI360
aI370
aI380
aI390
aI400
aI410
aI420
aI430
aI440
aI450
aI460
aI470
aI480
aI490
aI500
aI510
aI520
aI530
aI540
aI550
aI560
aI570
aI580
aI590
aI600
aI610
aI620
aI630
aI640
aI650
aI660
aI670
aI680
aI690
aI700
aI710
aI720
aI730
asg6
(lp141
I0
aI6
aI14
aI22
aI28
aI36
aI42
aI47
aI54
aI61
aI68
aI74
aI77
aI84
aI89
aI95
aI98
aI100
aI101
aI105
aI109
aI112
aI113
aI116
aI117
aI117
aI118
aI120
aI121
aI123
aI123
aI125
aI126
aI127
aI133
aI134
aI135
aI135
aI137
aI139
aI140
aI144
aI144
aI145
aI145
aI148
aI150
aI151
aI154
aI155
aI156
aI156
aI157
aI157
aI157
aI157
aI157
aI157
aI157
aI158
aI158
aI158
aI162
aI162
aI162
aI162
aI162
aI162
aI162
aI163
aI163
aI163
aI163
aI166
asa(dp142
g4
(lp143
I0
aI10
aI20
aI30
aI40
aI50
aI60
aI70
aI80
aI90
aI100
aI110
aI120
aI130
aI140
aI150
aI160
aI170
aI180
aI190
aI200
aI210
aI220
aI230
aI240
aI250
aI260
aI270
aI280
aI290
aI300
aI310
aI320
aI330
aI340
aI350
aI360
aI370
aI380
aI390
aI400
aI410
aI420
aI430
aI440
aI450
aI460
aI470
aI480
aI490
aI500
aI510
aI520
aI530
aI540
aI550
aI560
aI570
aI580
aI590
aI600
aI610
aI620
aI630
aI640
aI650
aI660
aI670
aI680
aI690
aI700
aI710
aI720
aI730
asg6
(lp144
I0
aI7
aI15
aI22
aI29
aI37
aI43
aI49
aI55
aI62
aI69
aI74
aI78
aI83
aI88
aI94
aI98
aI100
aI101
aI107
aI110
aI113
aI113
aI116
aI117
aI117
aI118
aI120
aI121
aI123
aI123
aI125
aI126
aI127
aI133
aI134
aI135
aI135
aI137
aI139
aI140
aI144
aI144
aI145
aI145
aI148
aI150
aI151
aI154
aI155
aI156
aI156
aI157
aI157
aI157
aI157
aI157
aI157
aI157
aI158
aI158
aI158
aI162
aI162
aI162
aI162
aI162
aI162
aI162
aI163
aI163
aI163
aI163
aI166
asa(dp145
g4
(lp146
I0
aI10
aI20
aI30
aI40
aI50
aI60
aI70
aI80
aI90
aI100
aI110
aI120
aI130
aI140
aI150
aI160
aI170
aI180
aI190
aI200
aI210
aI220
aI230
aI240
aI250
aI260
aI270
aI280
aI290
aI300
aI310
aI320
aI330
aI340
aI350
aI360
aI370
aI380
aI390
aI400
aI410
aI420
aI430
aI440
aI450
aI460
aI470
aI480
aI490
aI500
aI510
aI520
aI530
aI540
aI550
aI560
aI570
aI580
aI590
aI600
aI610
aI620
aI630
aI640
aI650
aI660
aI670
aI680
aI690
aI700
aI710
aI720
aI730
asg6
(lp147
I0
aI8
aI16
aI23
aI29
aI37
aI44
aI49
aI55
aI62
aI69
aI74
aI80
aI83
aI89
aI94
aI97
aI101
aI102
aI105
aI109
aI113
aI115
aI116
aI117
aI117
aI118
aI120
aI121
aI123
aI123
aI125
aI126
aI127
aI133
aI134
aI135
aI135
aI137
aI139
aI140
aI144
aI144
aI145
aI145
aI148
aI150
aI151
aI154
aI155
aI156
aI156
aI157
aI157
aI157
aI157
aI157
aI157
aI157
aI158
aI158
aI158
aI162
aI162
aI162
aI162
aI162
aI162
aI162
aI163
aI163
aI163
aI163
aI166
asa(dp148
g4
(lp149
I0
aI10
aI20
aI30
aI40
aI50
aI60
aI70
aI80
aI90
aI100
aI110
aI120
aI130
aI140
aI150
aI160
aI170
aI180
aI190
aI200
aI210
aI220
aI230
aI240
aI250
aI260
aI270
aI280
aI290
aI300
aI310
aI320
aI330
aI340
aI350
aI360
aI370
aI380
aI390
aI400
aI410
aI420
aI430
aI440
aI450
aI460
aI470
aI480
aI490
aI500
aI510
aI520
aI530
aI540
aI550
aI560
aI570
aI580
aI590
aI600
aI610
aI620
aI630
aI640
aI650
aI660
aI670
aI680
aI690
aI700
aI710
aI720
aI730
asg6
(lp150
I0
aI6
aI14
aI22
aI26
aI35
aI43
aI48
aI55
aI62
aI68
aI74
aI80
aI84
aI87
aI94
aI98
aI100
aI101
aI105
aI109
aI112
aI113
aI116
aI117
aI117
aI118
aI120
aI121
aI123
aI123
aI125
aI126
aI127
aI133
aI134
aI135
aI135
aI137
aI139
aI140
aI144
aI144
aI145
aI145
aI148
aI150
aI151
aI154
aI155
aI156
aI156
aI157
aI157
aI157
aI157
aI157
aI157
aI157
aI158
aI158
aI158
aI162
aI162
aI162
aI162
aI162
aI162
aI162
aI163
aI163
aI163
aI163
aI166
asa(dp151
g4
(lp152
I0
aI10
aI20
aI30
aI40
aI50
aI60
aI70
aI80
aI90
aI100
aI110
aI120
aI130
aI140
aI150
aI160
aI170
aI180
aI190
aI200
aI210
aI220
aI230
aI240
aI250
aI260
aI270
aI280
aI290
aI300
aI310
aI320
aI330
aI340
aI350
aI360
aI370
aI380
aI390
aI400
aI410
aI420
aI430
aI440
aI450
aI460
aI470
aI480
aI490
aI500
aI510
aI520
aI530
aI540
aI550
aI560
aI570
aI580
aI590
aI600
aI610
aI620
aI630
aI640
aI650
aI660
aI670
aI680
aI690
aI700
aI710
aI720
aI730
asg6
(lp153
I0
aI7
aI15
aI23
aI28
aI36
aI42
aI49
aI53
aI63
aI66
aI73
aI79
aI83
aI88
aI93
aI95
aI99
aI100
aI103
aI108
aI112
aI115
aI116
aI117
aI117
aI118
aI120
aI121
aI123
aI123
aI125
aI126
aI127
aI133
aI134
aI135
aI135
aI137
aI139
aI140
aI144
aI144
aI145
aI145
aI148
aI150
aI151
aI154
aI155
aI156
aI156
aI157
aI157
aI157
aI157
aI157
aI157
aI157
aI158
aI158
aI158
aI162
aI162
aI162
aI162
aI162
aI162
aI162
aI163
aI163
aI163
aI163
aI166
asa(dp154
g4
(lp155
I0
aI10
aI20
aI30
aI40
aI50
aI60
aI70
aI80
aI90
aI100
aI110
aI120
aI130
aI140
aI150
aI160
aI170
aI180
aI190
aI200
aI210
aI220
aI230
aI240
aI250
aI260
aI270
aI280
aI290
aI300
aI310
aI320
aI330
aI340
aI350
aI360
aI370
aI380
aI390
aI400
aI410
aI420
aI430
aI440
aI450
aI460
aI470
aI480
aI490
aI500
aI510
aI520
aI530
aI540
aI550
aI560
aI570
aI580
aI590
aI600
aI610
aI620
aI630
aI640
aI650
aI660
aI670
aI680
aI690
aI700
aI710
aI720
aI730
asg6
(lp156
I0
aI7
aI16
aI23
aI28
aI34
aI41
aI48
aI53
aI61
aI67
aI73
aI77
aI83
aI89
aI93
aI97
aI100
aI101
aI106
aI110
aI113
aI113
aI116
aI117
aI117
aI118
aI120
aI121
aI123
aI123
aI125
aI126
aI127
aI133
aI134
aI135
aI135
aI137
aI139
aI140
aI144
aI144
aI145
aI145
aI148
aI150
aI151
aI154
aI155
aI156
aI156
aI157
aI157
aI157
aI157
aI157
aI157
aI157
aI158
aI158
aI158
aI162
aI162
aI162
aI162
aI162
aI162
aI162
aI163
aI163
aI163
aI163
aI166
asa(dp157
g4
(lp158
I0
aI10
aI20
aI30
aI40
aI50
aI60
aI70
aI80
aI90
aI100
aI110
aI120
aI130
aI140
aI150
aI160
aI170
aI180
aI190
aI200
aI210
aI220
aI230
aI240
aI250
aI260
aI270
aI280
aI290
aI300
aI310
aI320
aI330
aI340
aI350
aI360
aI370
aI380
aI390
aI400
aI410
aI420
aI430
aI440
aI450
aI460
aI470
aI480
aI490
aI500
aI510
aI520
aI530
aI540
aI550
aI560
aI570
aI580
aI590
aI600
aI610
aI620
aI630
aI640
aI650
aI660
aI670
aI680
aI690
aI700
aI710
aI720
aI730
asg6
(lp159
I0
aI7
aI15
aI21
aI28
aI36
aI45
aI50
aI55
aI62
aI69
aI75
aI79
aI82
aI87
aI94
aI97
aI101
aI101
aI105
aI110
aI113
aI113
aI116
aI117
aI117
aI118
aI120
aI121
aI123
aI123
aI125
aI126
aI127
aI133
aI134
aI135
aI135
aI137
aI139
aI140
aI144
aI144
aI145
aI145
aI148
aI150
aI151
aI154
aI155
aI156
aI156
aI157
aI157
aI157
aI157
aI157
aI157
aI157
aI158
aI158
aI158
aI162
aI162
aI162
aI162
aI162
aI162
aI162
aI163
aI163
aI163
aI163
aI166
asa(dp160
g4
(lp161
I0
aI10
aI20
aI30
aI40
aI50
aI60
aI70
aI80
aI90
aI100
aI110
aI120
aI130
aI140
aI150
aI160
aI170
aI180
aI190
aI200
aI210
aI220
aI230
aI240
aI250
aI260
aI270
aI280
aI290
aI300
aI310
aI320
aI330
aI340
aI350
aI360
aI370
aI380
aI390
aI400
aI410
aI420
aI430
aI440
aI450
aI460
aI470
aI480
aI490
aI500
aI510
aI520
aI530
aI540
aI550
aI560
aI570
aI580
aI590
aI600
aI610
aI620
aI630
aI640
aI650
aI660
aI670
aI680
aI690
aI700
aI710
aI720
aI730
asg6
(lp162
I0
aI6
aI16
aI22
aI30
aI34
aI41
aI47
aI52
aI60
aI67
aI74
aI77
aI85
aI90
aI93
aI97
aI100
aI101
aI105
aI110
aI112
aI113
aI116
aI117
aI117
aI118
aI120
aI121
aI123
aI123
aI125
aI126
aI127
aI133
aI134
aI135
aI135
aI137
aI139
aI140
aI144
aI144
aI145
aI145
aI148
aI150
aI151
aI154
aI155
aI156
aI156
aI157
aI157
aI157
aI157
aI157
aI157
aI157
aI158
aI158
aI158
aI162
aI162
aI162
aI162
aI162
aI162
aI162
aI163
aI163
aI163
aI163
aI166
asa(dp163
g4
(lp164
I0
aI10
aI20
aI30
aI40
aI50
aI60
aI70
aI80
aI90
aI100
aI110
aI120
aI130
aI140
aI150
aI160
aI170
aI180
aI190
aI200
aI210
aI220
aI230
aI240
aI250
aI260
aI270
aI280
aI290
aI300
aI310
aI320
aI330
aI340
aI350
aI360
aI370
aI380
aI390
aI400
aI410
aI420
aI430
aI440
aI450
aI460
aI470
aI480
aI490
aI500
aI510
aI520
aI530
aI540
aI550
aI560
aI570
aI580
aI590
aI600
aI610
aI620
aI630
aI640
aI650
aI660
aI670
aI680
aI690
aI700
aI710
aI720
aI730
asg6
(lp165
I0
aI8
aI15
aI23
aI28
aI34
aI41
aI47
aI53
aI59
aI67
aI74
aI78
aI82
aI89
aI94
aI98
aI99
aI103
aI106
aI108
aI113
aI114
aI116
aI117
aI117
aI118
aI119
aI120
aI121
aI122
aI123
aI125
aI127
aI131
aI132
aI132
aI135
aI137
aI140
aI141
aI144
aI144
aI144
aI145
aI147
aI150
aI151
aI154
aI155
aI156
aI156
aI157
aI157
aI157
aI157
aI157
aI157
aI157
aI158
aI158
aI158
aI162
aI162
aI162
aI162
aI162
aI162
aI162
aI163
aI163
aI163
aI163
aI166
asa(dp166
g4
(lp167
I0
aI10
aI20
aI30
aI40
aI50
aI60
aI70
aI80
aI90
aI100
aI110
aI120
aI130
aI140
aI150
aI160
aI170
aI180
aI190
aI200
aI210
aI220
aI230
aI240
aI250
aI260
aI270
aI280
aI290
aI300
aI310
aI320
aI330
aI340
aI350
aI360
aI370
aI380
aI390
aI400
aI410
aI420
aI430
aI440
aI450
aI460
aI470
aI480
aI490
aI500
aI510
aI520
aI530
aI540
aI550
aI560
aI570
aI580
aI590
aI600
aI610
aI620
aI630
aI640
aI650
aI660
aI670
aI680
aI690
aI700
aI710
aI720
aI730
asg6
(lp168
I0
aI6
aI16
aI22
aI29
aI37
aI44
aI49
aI55
aI63
aI69
aI75
aI78
aI84
aI90
aI96
aI100
aI100
aI101
aI105
aI109
aI113
aI113
aI116
aI117
aI117
aI118
aI120
aI121
aI123
aI123
aI125
aI126
aI127
aI133
aI134
aI135
aI135
aI137
aI139
aI140
aI144
aI144
aI145
aI145
aI148
aI150
aI151
aI154
aI155
aI156
aI156
aI157
aI157
aI157
aI157
aI157
aI157
aI157
aI158
aI158
aI158
aI162
aI162
aI162
aI162
aI162
aI162
aI162
aI163
aI163
aI163
aI163
aI166
asa(dp169
g4
(lp170
I0
aI10
aI20
aI30
aI40
aI50
aI60
aI70
aI80
aI90
aI100
aI110
aI120
aI130
aI140
aI150
aI160
aI170
aI180
aI190
aI200
aI210
aI220
aI230
aI240
aI250
aI260
aI270
aI280
aI290
aI300
aI310
aI320
aI330
aI340
aI350
aI360
aI370
aI380
aI390
aI400
aI410
aI420
aI430
aI440
aI450
aI460
aI470
aI480
aI490
aI500
aI510
aI520
aI530
aI540
aI550
aI560
aI570
aI580
aI590
aI600
aI610
aI620
aI630
aI640
aI650
aI660
aI670
aI680
aI690
aI700
aI710
aI720
aI730
asg6
(lp171
I0
aI8
aI15
aI21
aI28
aI36
aI43
aI48
aI56
aI61
aI67
aI74
aI79
aI85
aI88
aI95
aI98
aI100
aI102
aI104
aI109
aI112
aI113
aI116
aI117
aI117
aI118
aI120
aI121
aI123
aI123
aI125
aI126
aI127
aI133
aI134
aI135
aI135
aI137
aI139
aI140
aI144
aI144
aI145
aI145
aI148
aI150
aI151
aI154
aI155
aI156
aI156
aI157
aI157
aI157
aI157
aI157
aI157
aI157
aI158
aI158
aI158
aI162
aI162
aI162
aI162
aI162
aI162
aI162
aI163
aI163
aI163
aI163
aI166
asa(dp172
g4
(lp173
I0
aI10
aI20
aI30
aI40
aI50
aI60
aI70
aI80
aI90
aI100
aI110
aI120
aI130
aI140
aI150
aI160
aI170
aI180
aI190
aI200
aI210
aI220
aI230
aI240
aI250
aI260
aI270
aI280
aI290
aI300
aI310
aI320
aI330
aI340
aI350
aI360
aI370
aI380
aI390
aI400
aI410
aI420
aI430
aI440
aI450
aI460
aI470
aI480
aI490
aI500
aI510
aI520
aI530
aI540
aI550
aI560
aI570
aI580
aI590
aI600
aI610
aI620
aI630
aI640
aI650
aI660
aI670
aI680
aI690
aI700
aI710
aI720
aI730
asg6
(lp174
I0
aI7
aI16
aI22
aI29
aI37
aI43
aI48
aI54
aI61
aI67
aI74
aI80
aI84
aI90
aI96
aI100
aI100
aI101
aI106
aI110
aI113
aI113
aI116
aI117
aI117
aI118
aI120
aI121
aI123
aI123
aI125
aI126
aI127
aI133
aI134
aI135
aI135
aI137
aI139
aI140
aI144
aI144
aI145
aI145
aI148
aI150
aI151
aI154
aI155
aI156
aI156
aI157
aI157
aI157
aI157
aI157
aI157
aI157
aI158
aI158
aI158
aI162
aI162
aI162
aI162
aI162
aI162
aI162
aI163
aI163
aI163
aI163
aI166
asa(dp175
g4
(lp176
I0
aI10
aI20
aI30
aI40
aI50
aI60
aI70
aI80
aI90
aI100
aI110
aI120
aI130
aI140
aI150
aI160
aI170
aI180
aI190
aI200
aI210
aI220
aI230
aI240
aI250
aI260
aI270
aI280
aI290
aI300
aI310
aI320
aI330
aI340
aI350
aI360
aI370
aI380
aI390
aI400
aI410
aI420
aI430
aI440
aI450
aI460
aI470
aI480
aI490
aI500
aI510
aI520
aI530
aI540
aI550
aI560
aI570
aI580
aI590
aI600
aI610
aI620
aI630
aI640
aI650
aI660
aI670
aI680
aI690
aI700
aI710
aI720
aI730
asg6
(lp177
I0
aI7
aI15
aI23
aI29
aI36
aI45
aI49
aI56
aI62
aI69
aI77
aI81
aI83
aI89
aI94
aI99
aI100
aI101
aI105
aI110
aI113
aI113
aI116
aI117
aI117
aI118
aI120
aI121
aI123
aI123
aI125
aI126
aI127
aI133
aI134
aI135
aI135
aI137
aI139
aI140
aI144
aI144
aI145
aI145
aI148
aI150
aI151
aI154
aI155
aI156
aI156
aI157
aI157
aI157
aI157
aI157
aI157
aI157
aI158
aI158
aI158
aI162
aI162
aI162
aI162
aI162
aI162
aI162
aI163
aI163
aI163
aI163
aI166
asa(dp178
g4
(lp179
I0
aI10
aI20
aI30
aI40
aI50
aI60
aI70
aI80
aI90
aI100
aI110
aI120
aI130
aI140
aI150
aI160
aI170
aI180
aI190
aI200
aI210
aI220
aI230
aI240
aI250
aI260
aI270
aI280
aI290
aI300
aI310
aI320
aI330
aI340
aI350
aI360
aI370
aI380
aI390
aI400
aI410
aI420
aI430
aI440
aI450
aI460
aI470
aI480
aI490
aI500
aI510
aI520
aI530
aI540
aI550
aI560
aI570
aI580
aI590
aI600
aI610
aI620
aI630
aI640
aI650
aI660
aI670
aI680
aI690
aI700
aI710
aI720
aI730
asg6
(lp180
I0
aI5
aI15
aI22
aI28
aI35
aI43
aI49
aI54
aI62
aI68
aI74
aI79
aI83
aI88
aI94
aI99
aI100
aI101
aI105
aI110
aI113
aI113
aI116
aI117
aI117
aI118
aI120
aI121
aI123
aI123
aI125
aI126
aI127
aI133
aI134
aI135
aI135
aI137
aI139
aI140
aI144
aI144
aI145
aI145
aI148
aI150
aI151
aI154
aI155
aI156
aI156
aI157
aI157
aI157
aI157
aI157
aI157
aI157
aI158
aI158
aI158
aI162
aI162
aI162
aI162
aI162
aI162
aI162
aI163
aI163
aI163
aI163
aI166
asa(dp181
g4
(lp182
I0
aI10
aI20
aI30
aI40
aI50
aI60
aI70
aI80
aI90
aI100
aI110
aI120
aI130
aI140
aI150
aI160
aI170
aI180
aI190
aI200
aI210
aI220
aI230
aI240
aI250
aI260
aI270
aI280
aI290
aI300
aI310
aI320
aI330
aI340
aI350
aI360
aI370
aI380
aI390
aI400
aI410
aI420
aI430
aI440
aI450
aI460
aI470
aI480
aI490
aI500
aI510
aI520
aI530
aI540
aI550
aI560
aI570
aI580
aI590
aI600
aI610
aI620
aI630
aI640
aI650
aI660
aI670
aI680
aI690
aI700
aI710
aI720
aI730
asg6
(lp183
I0
aI7
aI16
aI22
aI30
aI37
aI43
aI49
aI54
aI62
aI69
aI75
aI78
aI83
aI90
aI94
aI98
aI101
aI102
aI106
aI110
aI113
aI115
aI116
aI117
aI117
aI118
aI120
aI121
aI123
aI123
aI125
aI126
aI127
aI133
aI134
aI135
aI135
aI137
aI139
aI140
aI144
aI144
aI145
aI145
aI148
aI150
aI151
aI154
aI155
aI156
aI156
aI157
aI157
aI157
aI157
aI157
aI157
aI157
aI158
aI158
aI158
aI162
aI162
aI162
aI162
aI162
aI162
aI162
aI163
aI163
aI163
aI163
aI166
asa(dp184
g4
(lp185
I0
aI10
aI20
aI30
aI40
aI50
aI60
aI70
aI80
aI90
aI100
aI110
aI120
aI130
aI140
aI150
aI160
aI170
aI180
aI190
aI200
aI210
aI220
aI230
aI240
aI250
aI260
aI270
aI280
aI290
aI300
aI310
aI320
aI330
aI340
aI350
aI360
aI370
aI380
aI390
aI400
aI410
aI420
aI430
aI440
aI450
aI460
aI470
aI480
aI490
aI500
aI510
aI520
aI530
aI540
aI550
aI560
aI570
aI580
aI590
aI600
aI610
aI620
aI630
aI640
aI650
aI660
aI670
aI680
aI690
aI700
aI710
aI720
aI730
asg6
(lp186
I0
aI7
aI14
aI22
aI30
aI36
aI43
aI48
aI54
aI60
aI67
aI73
aI80
aI83
aI89
aI94
aI98
aI100
aI101
aI105
aI109
aI112
aI113
aI116
aI117
aI117
aI118
aI120
aI121
aI123
aI123
aI125
aI126
aI127
aI133
aI134
aI135
aI135
aI137
aI139
aI140
aI144
aI144
aI145
aI145
aI148
aI150
aI151
aI154
aI155
aI156
aI156
aI157
aI157
aI157
aI157
aI157
aI157
aI157
aI158
aI158
aI158
aI162
aI162
aI162
aI162
aI162
aI162
aI162
aI163
aI163
aI163
aI163
aI166
asas.